(lp0
(lp1
(lp2
F-0.6334746110590568
aF0.30093955035085057
aF-0.727996692719862
aF1.0837235129643474
aF1.5371932352690458
aF-2.894935469236902
aa(lp3
F1.6337123865469276
aF1.4452560281526943
aF-1.4459808299524446
aF-2.859922986835626
aF1.911439809130684
aF-0.7633699745126366
aaa(lp4
(lp5
F1.0289021651305132
aF0.5627277990478836
aF0.7505305557118603
aF-0.0038890650389408364
aF-1.941349112856303
aF0.9273756925222969
aa(lp6
F-0.9963546950932299
aF0.6049677755518001
aF-0.4370997720856578
aF2.328123846276942
aF-1.551476557304467
aF-3.035096817154875
aaa(lp7
(lp8
F2.164051894706211
aF-1.6918843996831674
aF-2.2427745031281248
aF-1.497709407585758
aF1.1174936752305293
aF1.1185220648188958
aa(lp9
F-0.4528825671443625
aF-0.9949461057159821
aF-2.6247884018912884
aF0.6834360446478542
aF0.725226089670449
aF1.9973488298594646
aaa(lp10
(lp11
F-1.2900481315746755
aF-0.2674205524841398
aF-1.993834142149555
aF-1.6508421018181152
aF2.00320634417002
aF-1.5887851332104845
aa(lp12
F2.668576679925891
aF1.9565723668631587
aF-0.9261638431639738
aF-1.7392969763456314
aF0.6889318268674618
aF2.8754898745792783
aaa(lp13
(lp14
F-0.8614435929783633
aF-0.7593631673671152
aF0.2649032736863736
aF-2.6986406213404153
aF0.24343767148673434
aF1.5837425168542487
aa(lp15
F-2.576991935355113
aF0.7671419592266768
aF-2.717376380878458
aF-2.0260936979712967
aF2.052109579523456
aF-0.6258171503341494
aaa(lp16
(lp17
F-0.15270209895497106
aF1.9125178891411074
aF-2.980288018738184
aF-0.2436832715147006
aF-0.28905592027877947
aF0.6728897369779958
aa(lp18
F0.6687467466241112
aF0.9547138071669138
aF-2.060636937520068
aF2.9951920377709444
aF0.1298726317764393
aF-0.07263977045019315
aaa(lp19
(lp20
F-1.6028223373208748
aF1.8789381489927337
aF-2.2280738492771297
aF-0.7593910598625859
aF1.7413664110871632
aF-2.8162628845178244
aa(lp21
F2.369421943943158
aF1.3808790122262085
aF3.065706862235808
aF0.3400840620769924
aF-1.395138207840963
aF-0.005753871358140577
aaa(lp22
(lp23
F2.41122683085649
aF-0.009313598943061416
aF-3.1338728970400047
aF-1.8339701523603211
aF-0.16203214289926324
aF-0.26685755771931435
aa(lp24
F-1.5922140983443807
aF1.3386828667314747
aF2.176876830385799
aF1.47022836062044
aF-0.596099168243009
aF2.2537744629376424
aaa(lp25
(lp26
F0.456485466374243
aF-0.5986365962578325
aF-2.3590761969316265
aF-2.329075888456959
aF-0.7373479647669997
aF-2.902022404581379
aa(lp27
F-2.1954945205317373
aF-1.6362685898976042
aF-2.0627798815025997
aF1.292868374506936
aF1.7412601004509707
aF-0.368138399741757
aaa(lp28
(lp29
F0.9311394175079365
aF0.03137847058822553
aF0.2529072090089221
aF-0.04590771177761041
aF1.2013319405852374
aF2.412037984954993
aa(lp30
F1.0560461134909698
aF0.9535307674051627
aF-0.10114115772984802
aF2.046605951260007
aF0.4791181183823813
aF2.6204300336333515
aaa(lp31
(lp32
F1.829458399539773
aF-0.28353084403064266
aF0.8818267779333052
aF1.263278682387618
aF-0.03155394691702929
aF-0.2047628434181455
aa(lp33
F-1.8267081674283328
aF-0.8532329738114602
aF-2.05312037668348
aF0.7145604734100705
aF1.8240807743955652
aF-0.5359158064373729
aaa(lp34
(lp35
F2.1787953913837246
aF0.12029790938673979
aF-2.3791848209204525
aF2.4841489897736233
aF1.1330009252273752
aF-2.176800606401525
aa(lp36
F0.9698473078473847
aF1.4477216221188345
aF2.5295020508505837
aF2.106353547945497
aF1.667975953319525
aF-2.0944647974560544
aaa(lp37
(lp38
F-2.718558623057799
aF-0.5680745086366302
aF-3.13597552090839
aF-2.1059356543158034
aF-1.5030227407695127
aF-2.50367389485183
aa(lp39
F-1.8156959630185243
aF-0.24905719945488286
aF2.523114625674866
aF2.05735015418916
aF-0.3893421321692574
aF1.9367978742404182
aaa(lp40
(lp41
F-3.045607081779947
aF-1.5850674740188668
aF-1.6104423276512705
aF-3.0904929578348193
aF0.1951755106650285
aF-2.7757241865482483
aa(lp42
F1.4585985634598118
aF-0.3865589690076439
aF-2.636751354372677
aF0.40922507947829656
aF1.4202306377504277
aF-2.101053527852484
aaa(lp43
(lp44
F0.6333610775719996
aF-0.039266973355610274
aF0.02009662882106343
aF2.572433507039429
aF-1.9672027856528056
aF-2.5571348603038127
aa(lp45
F-2.050819053841766
aF1.0607927898650287
aF-0.3528629519485131
aF-2.250629157683945
aF1.5417949929192218
aF-2.239860828632784
aaa(lp46
(lp47
F-2.7273873761696685
aF-0.0799681351582203
aF0.8152022878879079
aF-0.9528108927487474
aF1.4020685182700598
aF1.0404841373011955
aa(lp48
F-2.7777029771104114
aF-0.5492342709591322
aF0.259724009794925
aF-0.9677173927152822
aF-0.5781688167337409
aF-2.06912910678527
aaa(lp49
(lp50
F2.0971131332639503
aF-0.4914998589940908
aF0.539618667118662
aF0.7067703682554379
aF-1.7144387998806556
aF0.08195246100194614
aa(lp51
F-2.758653931635264
aF-1.7037924641961653
aF0.08243145686052229
aF-1.353073043315732
aF-1.1351214570916222
aF2.9987478984884812
aaa(lp52
(lp53
F1.6325439407161075
aF-1.896780095557021
aF-1.6740951511656395
aF-0.8140553803665327
aF1.2484702564408847
aF2.4229672532925255
aa(lp54
F-2.4479271540725382
aF0.8759433372580916
aF0.6117498659577625
aF0.5824912321231173
aF2.064812982729504
aF-1.5929380464439986
aaa(lp55
(lp56
F-1.3495246765986895
aF0.7510936648319695
aF0.6168305509481689
aF1.957881250279193
aF0.9240338079008449
aF1.7507207866589427
aa(lp57
F2.5937026184733525
aF-0.7242365715360959
aF0.024546716002925788
aF2.6759375173772058
aF0.12619099676208148
aF0.2595517758592303
aaa(lp58
(lp59
F0.8509157380409166
aF0.4928409489489529
aF-2.9347516247322822
aF2.9130229846334483
aF1.743161370840361
aF-0.5671998414224417
aa(lp60
F0.640724227783719
aF-2.046919298008515
aF0.05487356400620222
aF2.2081811484033413
aF0.8280948365587585
aF-2.4203420661242783
aaa(lp61
(lp62
F-1.9033262305011054
aF-1.043847241507209
aF-1.5603388717437257
aF0.32708378481748623
aF0.9018911093100479
aF2.736909816604329
aa(lp63
F-1.256008023328272
aF2.2015739362313878
aF2.496027175679261
aF-2.645765570208666
aF-0.5920190246161532
aF3.063030963919824
aaa(lp64
(lp65
F-1.456050498507637
aF1.128092842404385
aF-1.3567603438392515
aF0.4968585579568719
aF-1.0675791919645936
aF-2.103240760611283
aa(lp66
F3.12094309282318
aF1.562682791509595
aF-2.897802479581639
aF2.9714342408144496
aF1.4977396887696384
aF1.9761730029150582
aaa(lp67
(lp68
F-2.1537235502509664
aF1.265036516490614
aF2.2493082252757604
aF0.9150334437714509
aF-1.5628207988197445
aF0.6669934745302964
aa(lp69
F0.4348544294263084
aF-0.9173890190242984
aF-2.4289525859984766
aF-2.0959270119892386
aF2.1164195235204644
aF2.3377551304368893
aaa(lp70
(lp71
F-1.1496695215628965
aF0.5130093722201102
aF-2.1112761402813924
aF-2.7622162024595514
aF1.7135914885130836
aF1.8089724870574175
aa(lp72
F1.6245966589584515
aF1.6968078424916915
aF-0.9061511865681222
aF-0.1974341158681895
aF1.3060219350143698
aF2.3738285128736383
aaa(lp73
(lp74
F0.27523168720098035
aF0.025473601594459147
aF-3.0722077678458715
aF0.4133389899278717
aF-1.5598767243990859
aF1.9375066740382667
aa(lp75
F1.485766328854468
aF-0.9329242000812995
aF1.2320107313952255
aF1.7278235801988573
aF1.0611266707368858
aF-0.5385991445643139
aaa(lp76
(lp77
F-0.15107524270469055
aF0.3698474222342328
aF-2.4947647401941757
aF-0.12071633116752518
aF1.7543668431361337
aF-1.2739689695357435
aa(lp78
F2.1117812876247104
aF0.972753680741418
aF-2.821597199006277
aF-1.9357259648741263
aF-0.7361357119797405
aF1.5504623427388728
aaa(lp79
(lp80
F-2.373660436788867
aF-1.7623246927711953
aF0.5408854423998403
aF-2.091596313090159
aF-0.3048086238621331
aF-1.615726226125885
aa(lp81
F3.1016881404314844
aF1.2830858437378576
aF-0.3081733044058535
aF1.0450838937759483
aF-0.9442904880620149
aF-0.8894841444066388
aaa(lp82
(lp83
F-1.2674407664688778
aF2.028082776885155
aF2.6747038732795145
aF-2.878353640813106
aF-1.7339390325075215
aF-2.046223494338652
aa(lp84
F2.3921088035874596
aF-1.3713106551271441
aF-1.3161400896178557
aF-2.1075234742017894
aF-0.9505605839531063
aF1.476195355554261
aaa(lp85
(lp86
F1.7340194427912607
aF-0.7680495142279299
aF-1.6810550203513586
aF-0.012642622535866795
aF0.735107104898361
aF-2.0406492962709786
aa(lp87
F-1.3314907187798253
aF1.8701629941478957
aF-1.1718958382646378
aF-0.6245820791631854
aF-0.4776897974474355
aF1.5431213421670553
aaa(lp88
(lp89
F-0.6561452985959018
aF0.35198290397967413
aF-0.7577492488835027
aF-0.03997700604777489
aF-0.15259499604842608
aF1.8605791020623255
aa(lp90
F-0.18190653620184233
aF-0.9258443445147851
aF-0.12845929843203896
aF-2.638436700780242
aF-1.663841238224868
aF0.7478947465613123
aaa(lp91
(lp92
F-0.5487296384198667
aF-0.8938450331749802
aF-2.7770318655442376
aF2.756158197645557
aF0.3865758989245268
aF0.48719904329355695
aa(lp93
F1.201462876465313
aF0.9842056363075935
aF-0.03173854538023528
aF-1.796046724516397
aF-0.9496597422465504
aF1.4342603530667437
aaa(lp94
(lp95
F-1.18385072289272
aF-1.0149031727190008
aF0.33082877655155235
aF1.895432133287188
aF0.7502134293254625
aF-1.3754715629926337
aa(lp96
F2.847859405024794
aF2.0094406084295784
aF-2.6183745085284023
aF-1.2419611058779083
aF1.2294521280184791
aF-1.7833141587316494
aaa(lp97
(lp98
F-2.7919462528158716
aF-1.8906304057802896
aF-0.23524728622973637
aF-1.3440555525945197
aF-0.04855676220815538
aF-2.9792292990650866
aa(lp99
F0.8559767455021793
aF1.965718226511
aF-1.2265772168102957
aF2.3766801990150803
aF1.4980120708482367
aF-1.0171736237931783
aaa(lp100
(lp101
F-0.17233737469870283
aF0.9071335062277793
aF-0.39345967954377936
aF-2.7882034522419272
aF1.9067994520407228
aF0.40161548236655104
aa(lp102
F1.7621264697696462
aF-0.5238468858151962
aF2.5265332932333533
aF-0.9273104638897192
aF-0.20347321011479563
aF-1.3669360829968715
aaa(lp103
(lp104
F1.0170012487986289
aF2.017733211366908
aF-1.931111020739572
aF-2.079728848707413
aF0.4473016414108108
aF-0.10051240336208697
aa(lp105
F1.860850611554137
aF0.6666401490197004
aF2.6384971592809534
aF-1.8945351426453545
aF-1.4347008275633133
aF1.2868509437258315
aaa(lp106
(lp107
F-0.19349543455643242
aF-0.0938867806542322
aF2.1759676954384966
aF-1.8088748589970887
aF1.04224557474649
aF0.3702276064098194
aa(lp108
F0.5827220787173494
aF0.2654356775350499
aF-2.5422626713977365
aF-0.9612048202149255
aF-0.6602072674722661
aF-2.061329124307454
aaa(lp109
(lp110
F0.31928720565973406
aF-0.47654111335308846
aF2.5464211477911887
aF1.3904665422530276
aF0.16917984876142117
aF1.0997508867636736
aa(lp111
F1.833110826550407
aF2.158765238843286
aF-1.827944192128183
aF-1.943496719597359
aF1.8308338507091055
aF1.59669653843462
aaa(lp112
(lp113
F-1.6170416108806989
aF0.2560916215565959
aF2.2885514484857024
aF2.6597792489648735
aF0.8566659128621875
aF-2.194336915395378
aa(lp114
F1.922772621216985
aF-1.2189911021340791
aF-1.7063858765859936
aF1.5082642166259779
aF0.2697897276651152
aF1.6118217158596584
aaa(lp115
(lp116
F0.5710490277690773
aF-1.1898304983320067
aF2.6749362582072287
aF-2.6911596244988583
aF0.9507563987766431
aF-2.3911501306931027
aa(lp117
F1.6152800965625789
aF-1.1389012802354541
aF0.4581412414753897
aF2.2713907943570706
aF-1.1413276250768747
aF2.5208118708101432
aaa(lp118
(lp119
F-2.0681150832379585
aF-1.2072493335828796
aF1.1702777626218541
aF1.9090851543776208
aF1.5346351289532667
aF2.692351667769183
aa(lp120
F-2.5415763471040806
aF0.9391247904738429
aF2.9282528988874614
aF-2.193364129102662
aF0.18844473563142417
aF2.320668103595228
aaa(lp121
(lp122
F1.1384755394595283
aF-1.5384937492187956
aF0.1407552279723431
aF-1.8018431295025703
aF-1.346982973974689
aF-2.7490012191641395
aa(lp123
F-1.2014906899115514
aF0.482604721301526
aF0.7693743827080232
aF-0.6645555270588329
aF-1.3734362625276584
aF1.7999578823193667
aaa(lp124
(lp125
F0.6177063574387915
aF-1.4444173654555394
aF1.0520288052248565
aF2.434688167370349
aF0.11583558779096252
aF1.2244831428130367
aa(lp126
F1.9241139486833803
aF2.1929632986438947
aF2.8828599188593227
aF-2.8701522056665216
aF-0.7141437551089018
aF1.8418605152161542
aaa(lp127
(lp128
F-0.656615398953803
aF0.509933357134664
aF2.2701856964294027
aF-2.893669250717529
aF-0.3674842271663298
aF1.8476403537764785
aa(lp129
F2.512549848439389
aF-1.4221885506522771
aF-1.1472514453132612
aF1.385029100345817
aF-0.469878131170719
aF-1.5794448709465985
aaa(lp130
(lp131
F0.06990132478043287
aF-0.0301477528937429
aF0.9243001977456784
aF-0.5385568221455252
aF-1.8209053283699217
aF2.0880321306128606
aa(lp132
F-1.618231525189075
aF-1.701334438264399
aF-0.2638880083165628
aF-3.095169618249827
aF-1.8069987747654392
aF-0.3120542340520309
aaa(lp133
(lp134
F-0.9811022451273609
aF-1.1024173499329093
aF2.9964979213233986
aF0.9942257931717086
aF-0.686775099474725
aF-1.986182145132836
aa(lp135
F-1.1461960395082378
aF-1.7682430191849035
aF0.79398357547567
aF-2.4448294774925494
aF0.09984821905364384
aF1.522874110025801
aaa(lp136
(lp137
F-1.3589857496743525
aF-0.7931419799618512
aF2.5554032720549085
aF1.5991778541455308
aF-0.7773572271476179
aF-1.6731310606131082
aa(lp138
F0.8595996612168214
aF0.5482211185869923
aF0.5312223266775578
aF1.1141326841470724
aF-1.302556226551608
aF3.1171782348461567
aaa(lp139
(lp140
F1.2534800569910531
aF-0.09169065170456911
aF0.6672723880844552
aF-1.5003506823910986
aF1.4689753888499657
aF-1.0035360283973682
aa(lp141
F-2.5448523236232434
aF-1.238250866971116
aF-0.7245686300997919
aF2.517241669205358
aF1.331072127563226
aF0.31089231301947845
aaa(lp142
(lp143
F2.6767298610981625
aF1.122693142238454
aF-1.2401393281581639
aF-2.4275940862384893
aF-1.6244656056689832
aF2.8184522725270194
aa(lp144
F-1.8509373927128594
aF2.0557416008512646
aF-1.5236024542597433
aF-0.8883355817109185
aF-0.7148784866752629
aF-0.19391590809486647
aaa(lp145
(lp146
F-0.5564922618564061
aF-0.07173727795601718
aF-0.33497096176951013
aF0.22465489022317664
aF0.16292646324090737
aF-3.0689056778181834
aa(lp147
F2.9553362139216115
aF1.8059248739363156
aF2.6698659512165688
aF1.9566579320633446
aF0.3076742192518761
aF-0.5759092465188751
aaa(lp148
(lp149
F0.5266261008193188
aF1.3143909400725726
aF-2.249809274434766
aF-2.065480582814119
aF-0.09198298870980004
aF0.0669497235594685
aa(lp150
F0.9994777943826544
aF-0.7225104494576134
aF-0.35660754051708804
aF0.5454914020003729
aF-1.7498469585440843
aF0.8435045953169197
aaa(lp151
(lp152
F-3.0041199061476047
aF-0.7822729856605838
aF-0.2814180854026076
aF3.139275813733655
aF-0.4098258258114676
aF0.8664499428252703
aa(lp153
F-1.8145521812120609
aF1.1317868526187753
aF2.6193081109847878
aF-3.083188991715509
aF0.4547651899840533
aF-1.9256140887969917
aaa(lp154
(lp155
F0.7363880173540698
aF1.4618956744068472
aF-1.3699513152252565
aF1.0704529418888489
aF1.255851860421523
aF1.6260007762743613
aa(lp156
F2.7425885144685918
aF0.8114660096668894
aF-2.911893869384871
aF-1.0578964770984427
aF-1.156087885049094
aF0.11120219808606391
aaa(lp157
(lp158
F-0.8720960782620755
aF0.38693764559712224
aF-1.981133885559948
aF1.3514348411864774
aF1.7350126015975305
aF0.778435767495601
aa(lp159
F-2.2182340588588767
aF-0.8982458231459536
aF2.883727632336914
aF2.9783295850479363
aF0.6052540775714211
aF-2.7288173053269373
aaa(lp160
(lp161
F-1.354017199378407
aF-1.8488296941975362
aF1.0017168904057607
aF1.0299209592005565
aF-1.0975141741785546
aF1.2232565555521593
aa(lp162
F-0.879757385201435
aF1.9636582081427032
aF-1.9730725540284384
aF-2.995771309306424
aF-0.6772386233237822
aF0.47552453527174315
aaa(lp163
(lp164
F-2.2977998832934845
aF-1.579583317886459
aF-1.0684043593148858
aF-0.8127361838535987
aF1.7047733659251283
aF2.9764595887379337
aa(lp165
F-0.4297062096960275
aF0.0012947390981981463
aF-0.1547806580388882
aF-1.3269377789576886
aF1.8893478735364309
aF2.1824489900763973
aaa(lp166
(lp167
F2.2087874665444693
aF1.171578395230646
aF-2.6816249641867027
aF-1.99226574792565
aF-0.0835475986340239
aF-0.28373997470694845
aa(lp168
F-1.2305543535876902
aF1.131484211955916
aF3.036243365893013
aF-1.6014888521372357
aF1.9681975537186647
aF0.3632949912836883
aaa(lp169
(lp170
F-2.7824665000576614
aF-0.8339805844900389
aF-2.860862517879598
aF-2.9012113219654965
aF-1.3358495034813358
aF-1.6233865686295732
aa(lp171
F0.399910793215795
aF0.17652311783389865
aF0.21760292106216947
aF-2.313821773814713
aF0.375254368428429
aF-1.414298974673364
aaa(lp172
(lp173
F-1.1269240749070153
aF-0.5455021790440332
aF0.544357880226902
aF1.6251691073051056
aF1.7972401555643245
aF-1.092717758940343
aa(lp174
F-1.813013308411885
aF-0.8980473577767375
aF-1.738208661222819
aF0.9848557860320837
aF1.5884451571415121
aF-0.055162149729679866
aaa(lp175
(lp176
F2.6060199198641136
aF-1.3604756088371714
aF0.2933352639796798
aF-2.668273612268794
aF0.7196890210329498
aF-1.5836832348588408
aa(lp177
F0.584014157100235
aF0.35166293276834526
aF2.809744015219438
aF2.8167090447937277
aF0.4297096018531846
aF0.9379283517907615
aaa(lp178
(lp179
F-1.6545294063353682
aF-0.7809113216501081
aF2.928552281297985
aF2.6018522451546158
aF0.2618537331710433
aF1.5847518203035635
aa(lp180
F0.9179043446483447
aF2.199445289973685
aF-2.7837005890699174
aF2.483316849484638
aF-0.13007740397400178
aF-0.8152615733423578
aaa(lp181
(lp182
F2.0741822754524235
aF0.1502806889923619
aF-2.780596348564209
aF-2.295181686619272
aF-1.459050629391645
aF-3.0887867006660925
aa(lp183
F-1.487600980540603
aF-1.5607774769218181
aF-0.5637334316415338
aF0.432097337622419
aF1.185698408487731
aF-1.2837072519850201
aaa(lp184
(lp185
F-1.6926474748765348
aF1.7497823389595637
aF2.6595106400138584
aF-2.229580951449437
aF-0.23432398224850753
aF2.67663341081429
aa(lp186
F2.1721436275270967
aF-0.7199642780711436
aF0.8217764991567909
aF1.8395793100965483
aF0.2495209906742926
aF-2.1351753613420956
aaa(lp187
(lp188
F-1.424955545447294
aF0.09386342992733893
aF-2.6467753816188067
aF3.081551295727483
aF-1.230529887107647
aF-2.728651447542814
aa(lp189
F0.31475358341298704
aF-1.9503187264035589
aF-1.2423315142664573
aF-1.7160136903061884
aF1.2703202077906321
aF1.5276143303790548
aaa(lp190
(lp191
F1.206957720283504
aF-1.852619062151863
aF-1.7037034771276724
aF0.05189086321368236
aF0.4980521395766859
aF-0.8494168014030368
aa(lp192
F-0.8850221824458634
aF-0.10228225453702408
aF-0.26427081653540846
aF-0.523790123648763
aF1.261128615035675
aF2.8852503879737883
aaa(lp193
(lp194
F1.1721261563412468
aF1.4858574927095136
aF-1.8014940927941812
aF-2.2442270467646805
aF-0.4323324232551975
aF-1.587562701497614
aa(lp195
F0.4759745934576402
aF1.0418892544678964
aF0.15236541252257726
aF-2.403635260694351
aF1.2400666382292331
aF-0.6647493780640467
aaa(lp196
(lp197
F-2.1521747286031676
aF-0.9022943757876694
aF2.9048200813323444
aF-3.105854849725722
aF-1.1880289688825487
aF-0.7989497105788445
aa(lp198
F-0.36196977966841687
aF0.8199894959844821
aF-2.1157684506944436
aF1.4256894044632284
aF-1.964288613538824
aF-2.610164291123827
aaa(lp199
(lp200
F-1.7802559484077343
aF1.5170144517080624
aF-1.1586811682503841
aF1.4482143887735761
aF2.0641049736575847
aF2.5703443616115607
aa(lp201
F-2.399448672463579
aF-1.069072309601491
aF0.37642870630680836
aF-2.0745164532740135
aF-0.45583226725503934
aF-0.5729310117616867
aaa(lp202
(lp203
F1.9933679350249587
aF-1.3602408400145825
aF-2.4473729347505326
aF1.963964948789801
aF1.8856480751663314
aF-2.688495576972658
aa(lp204
F2.6686624975309035
aF-1.3935275329802097
aF1.0842689201264475
aF1.7804427961977873
aF-1.8408515540250467
aF0.7013139556680279
aaa(lp205
(lp206
F-3.010224927285246
aF-0.9903789238527068
aF0.685646670292931
aF-2.0879404924507035
aF-1.0408519789525987
aF-1.819759510659173
aa(lp207
F0.29027658677176066
aF-1.0720304739737498
aF-1.363279104952591
aF2.5958897546658566
aF0.9309184046187989
aF1.6288715331145438
aaa(lp208
(lp209
F2.310560546870904
aF-1.3075478053411862
aF-2.634347371179863
aF1.8169245226898123
aF-0.3887563676746671
aF-0.6377104225710397
aa(lp210
F0.07023250719469781
aF0.3878527652777609
aF0.6175617459324271
aF-1.042154848503148
aF-1.9578480966458107
aF1.4528593228519537
aaa(lp211
(lp212
F-1.7169918425301478
aF1.7987341132453347
aF-0.6121600155500508
aF2.9795203947447795
aF2.143749375233065
aF2.569820699552593
aa(lp213
F-1.2018719960193864
aF1.1889989149249527
aF-2.9855365851893296
aF2.860603226078977
aF-1.2682324218099879
aF0.9316257340202216
aaa(lp214
(lp215
F2.2087254961048592
aF-0.8131772061266077
aF-1.0410515830096145
aF2.7198105890390853
aF-1.6055017289244116
aF2.211374127552675
aa(lp216
F-2.817919502901801
aF0.7794537254976015
aF-1.0382394354421414
aF1.3015459540335808
aF-0.1527085544867856
aF2.542817697032514
aaa(lp217
(lp218
F3.0476124639845135
aF2.037023344065151
aF-1.778967800538511
aF-2.847208774803954
aF1.0506576480609053
aF2.9539041944382762
aa(lp219
F-2.641760080722333
aF1.3305622906767194
aF-0.5527057047198078
aF0.24723567185952477
aF2.008910831192885
aF2.7743081258875093
aaa(lp220
(lp221
F1.9923683971672463
aF-0.8485667985448665
aF-1.5766794191030185
aF-1.0698890207810583
aF1.0578285870131592
aF1.5797283062076033
aa(lp222
F0.2529653364971945
aF-1.1704317585843484
aF2.992833291348754
aF3.1051265690989895
aF1.9268710482512614
aF0.6329474523618651
aaa(lp223
(lp224
F1.9037624621018008
aF0.46656691845522946
aF-0.06263479346247262
aF-3.0555409902544777
aF-0.38287456289873434
aF-3.056183402099521
aa(lp225
F-2.9609644219678604
aF-1.2955494588191387
aF1.0418225512961303
aF0.06695538162694312
aF-1.4832921225591718
aF0.1308170672561918
aaa(lp226
(lp227
F-1.5522034583225626
aF0.7405729524290044
aF3.083538281969682
aF2.982879683139376
aF1.5985626229065812
aF0.37998659745592905
aa(lp228
F-1.3681615590059821
aF-1.768881526067395
aF-0.1946275090574312
aF3.0929656809662496
aF0.6209929898951524
aF2.1356468675664355
aaa(lp229
(lp230
F-0.6588674338553201
aF0.9503504168983152
aF-1.1648451024670516
aF2.904752877179499
aF-1.9353117540977653
aF0.16521469757287988
aa(lp231
F0.45016896051088773
aF-1.8760080907383825
aF-1.7121665061173794
aF-0.5547725607695035
aF0.8407883616776587
aF-0.1816912888502314
aaa(lp232
(lp233
F0.12136224141770174
aF1.0708168277649668
aF2.2020025627992825
aF-0.47080704524939765
aF1.470765990846746
aF2.997154807771338
aa(lp234
F-0.8669225766927671
aF2.1396649166668955
aF-2.49864933611276
aF-2.2790454110387137
aF0.8918039964532577
aF-1.2415090838746132
aaa(lp235
(lp236
F-1.21761384387865
aF0.8504598445706152
aF2.985350427374676
aF2.615938916727139
aF1.5684047948946578
aF2.670632479759047
aa(lp237
F-0.20504836444497207
aF1.8834656225858792
aF2.5108998779323737
aF1.6217482202760929
aF-0.6823588351743023
aF0.5289140395475344
aaa(lp238
(lp239
F2.778124124539483
aF-0.6382677662425196
aF2.9106438027707946
aF-2.1915550887902446
aF-0.7998007043807321
aF2.606379000057033
aa(lp240
F-0.38221387190179146
aF-1.6831633295533979
aF-1.60263388083841
aF-2.455260621277197
aF1.0772361285132603
aF-2.373071814077314
aaa(lp241
(lp242
F0.18436658917863752
aF0.24814111997834618
aF0.4504035432442293
aF0.6510748402860969
aF1.4640648595026533
aF1.7224697967592872
aa(lp243
F-2.3597648538432896
aF-1.5843102891419087
aF0.7393065614436934
aF2.098295543614047
aF1.4679283267703518
aF-2.3185262294660247
aaa(lp244
(lp245
F2.814335602124937
aF-1.5844314440780811
aF-1.3567071009861045
aF-0.6044703781159961
aF-0.0321169458173451
aF1.9615761807885939
aa(lp246
F0.44497651872521854
aF-0.2244847786756082
aF-0.21585533649623967
aF1.1579531625182269
aF0.8163634821707227
aF1.7928717258034819
aaa(lp247
(lp248
F0.6941289011141454
aF-1.8764016416009983
aF-0.7247748250498682
aF-1.6698590823386443
aF-0.4008290227174761
aF0.8511765376482647
aa(lp249
F0.2854254775115101
aF-1.5322023515262893
aF-2.084752328547337
aF1.4999713984123288
aF2.1039614998517813
aF-1.6771243978559789
aaa(lp250
(lp251
F2.2532953994530245
aF-1.6609197638680202
aF0.38874418380261755
aF-2.797758445937433
aF0.38272734956459936
aF2.1643910513598636
aa(lp252
F-0.4207581977592162
aF-0.33398463455795313
aF2.4070267452562173
aF1.3276813752118222
aF-0.7900372758389194
aF1.9234084181559643
aaa(lp253
(lp254
F-0.12004549729648377
aF0.14621935918878107
aF-0.21275888121089429
aF-1.605793767097958
aF2.1133970435735514
aF2.5321766996169135
aa(lp255
F1.8793128352630437
aF1.5591955490618938
aF-1.6595908452739059
aF1.2689336249705983
aF1.7005827168652803
aF0.322295467395551
aaa(lp256
(lp257
F2.6446080096917823
aF-1.6853893730226288
aF-2.0895029127283418
aF2.839172828155074
aF-0.6710236617998165
aF-1.3383838917489412
aa(lp258
F0.4614579291155215
aF-0.3114448478551098
aF0.04654643047994959
aF1.8137046836026982
aF1.7193075291817008
aF-2.593117990217617
aaa(lp259
(lp260
F1.1653490088834584
aF0.07733875431647089
aF2.5588250389807135
aF-0.22275018809986857
aF1.3103563012458534
aF1.590301451743751
aa(lp261
F-0.5423093659965558
aF1.6479093528904385
aF2.826106478427151
aF0.9072083142193808
aF1.6908502252385582
aF2.018801571794575
aaa(lp262
(lp263
F1.0920328381009834
aF1.9978290933218537
aF-2.2059160904331563
aF2.7882094643843307
aF2.020465709883078
aF-2.5464221892138243
aa(lp264
F1.7952655118296006
aF-0.8825233481404197
aF1.0834180920603667
aF3.0336317531916817
aF0.5014426999045242
aF-0.6498026964289794
aaa(lp265
(lp266
F2.565808979055532
aF0.3910522113484695
aF0.45174771934069263
aF-0.8256962641863155
aF0.8345263656627006
aF1.181527401670077
aa(lp267
F1.2930116960809843
aF-1.3765729426520712
aF-0.6919925934505444
aF2.5578082682111485
aF-1.8455800189695342
aF2.7229807934438086
aaa(lp268
(lp269
F3.067225524956824
aF-1.6576855339340693
aF-1.1362764598425754
aF2.7303493944927864
aF-1.5698500385857996
aF0.022713434221650786
aa(lp270
F1.8352054139137508
aF1.2630198388827387
aF-1.9168364024152478
aF-0.7071622908785592
aF-0.8819107562052045
aF0.5364333294504451
aaa(lp271
(lp272
F1.4763251180740673
aF-1.602079908677978
aF0.5498134463195467
aF-0.0942489725389307
aF-0.026615530737701825
aF2.3782626721352655
aa(lp273
F-0.08474780281754934
aF0.901358152280736
aF-2.466092276006787
aF0.8077793010194485
aF1.35288081965885
aF-1.61101389878476
aaa(lp274
(lp275
F2.908499134158148
aF-2.1053217607025396
aF0.7986364598785777
aF-0.5791327580906147
aF0.37575895162631945
aF2.033851542861106
aa(lp276
F-2.1611967647176025
aF-1.2823455335320464
aF-1.4743583106807723
aF-0.20942245189980704
aF-1.5772666863856466
aF2.9061577787590553
aaa(lp277
(lp278
F2.963637608439401
aF-0.8822924098181046
aF-2.5138177920099736
aF-0.6488004448788475
aF0.648993052032584
aF-0.4475338825581979
aa(lp279
F-3.103638844140663
aF1.2150249280647527
aF-1.3629347583750473
aF1.1077107828234554
aF0.29312968247361354
aF-1.8671188233818257
aaa(lp280
(lp281
F-2.6394412282909703
aF1.2897146593717366
aF-0.30885297896367037
aF-0.813648995800883
aF0.7231585984157859
aF-3.018869318274176
aa(lp282
F-1.6280944587754052
aF-1.0584818292257991
aF1.0683024104703265
aF0.32494526040844
aF-1.5483165504440612
aF0.0011317851723043457
aaa(lp283
(lp284
F-0.944447059209419
aF-1.2946941322495802
aF-0.1878638454099374
aF-1.3844026388386026
aF0.20092458800741045
aF-2.6377150448276674
aa(lp285
F-1.8078042681242334
aF1.8412206556577055
aF2.425612891579035
aF2.843274775250725
aF1.4222119299329163
aF-1.2487414909291068
aaa(lp286
(lp287
F-1.0809585556634507
aF2.096877658502454
aF2.614323548846832
aF2.590143728858229
aF-1.806081861625197
aF2.4721318150946665
aa(lp288
F3.0852169356981145
aF1.52577357815337
aF-1.5696193449475557
aF1.0428127385185064
aF1.0621701576944167
aF-1.6549672206642134
aaa(lp289
(lp290
F1.7668026012128526
aF1.7105046018048535
aF-1.9639654435475489
aF-1.4438000327342801
aF1.7227650566382933
aF1.6836702520142832
aa(lp291
F2.5669532817652945
aF-0.969733183825548
aF-0.23262520237270506
aF1.7868720145388068
aF0.2720321111036007
aF2.7268376471775113
aaa(lp292
(lp293
F-1.8664145139744734
aF1.9109607653099963
aF3.0084746229377095
aF1.4967337366306348
aF-1.6600905667507517
aF2.8702835223668113
aa(lp294
F-2.03075040311265
aF-0.27207301171306836
aF0.36279042343932805
aF2.4798138696832766
aF0.24600316138439185
aF0.9473053931539481
aaa(lp295
(lp296
F1.3057637397133999
aF-0.2433395708551619
aF0.030967028802491577
aF1.0420220408314669
aF-0.8306505405978902
aF2.889731040905077
aa(lp297
F-2.7075771046366373
aF-0.589516240263356
aF-0.7645416573877597
aF2.3731397576899944
aF-1.2924925177494695
aF2.3432797751642718
aaa(lp298
(lp299
F2.0258132600397496
aF0.5766200034503395
aF-3.0450729209841683
aF-1.5862866513617435
aF0.8737050386349539
aF2.783371239038287
aa(lp300
F1.2861579953840165
aF-0.7792250618488855
aF-2.829247006009212
aF2.0969420171393347
aF-1.5780797213430688
aF-2.474436669652919
aaa.
