(lp0
(lp1
(lp2
F-2.204287972910795
aF1.4825334404048292
aF-3.28518928216024
aF-1.9768827415130503
aF1.0948300535831526
aF-1.4923947407342073
aa(lp3
F1.6939393999986092
aF1.551084286367714
aF-1.1908467975157784
aF-2.932922760835258
aF-1.6934429461011693
aF3.6383427071286354
aaa(lp4
(lp5
F-2.9082623908275522
aF-1.6851596987708861
aF-1.0847718185714936
aF3.1830345552142223
aF-1.8204439409546356
aF0.5159093809958817
aa(lp6
F0.44895557845614675
aF1.2377391615433164
aF0.6856559698135833
aF-4.084672255153206
aF-0.7692633494436198
aF1.9969611453279486
aaa(lp7
(lp8
F0.16591994284712053
aF-0.1684248086506006
aF1.1202357419337816
aF-1.3393218607554118
aF-1.4005236260925855
aF-3.5141982922932984
aa(lp9
F-1.054520863511497
aF1.5156708195439852
aF-3.466770617589424
aF-2.321740121000667
aF0.7936202939110899
aF-1.1959908313906604
aaa(lp10
(lp11
F1.2599402719777433
aF-0.5329685467902039
aF-0.2546248821816248
aF1.7992449626040994
aF1.7860299614980768
aF-3.9823402907069485
aa(lp12
F1.8899255189706614
aF1.2524630240847334
aF-1.6914253728017385
aF4.461209801655533
aF0.2465775915702948
aF2.0376695516815557
aaa(lp13
(lp14
F-0.09475893840419625
aF-0.11494429318571853
aF-0.3722764572301194
aF2.061300813097798
aF-0.885782564256179
aF3.915284798500566
aa(lp15
F-0.663003493073147
aF0.5991845947909824
aF0.20600069023732281
aF-0.3069482579546179
aF2.0440769366432843
aF-0.3126126756433436
aaa(lp16
(lp17
F-2.7665163306977654
aF-1.3447447529437166
aF-0.655102160785674
aF-4.577636278041815
aF1.1776189639439698
aF-6.177620678569208
aa(lp18
F-1.0622924125702253
aF-0.9182590207060584
aF1.0503078619400674
aF-0.6915633121772737
aF-0.1449355914684638
aF4.134101354355276
aaa(lp19
(lp20
F-0.20135293736754356
aF1.6626869823575179
aF-1.6817504644463457
aF-3.1762292130570646
aF1.3725653879862363
aF2.8580511117888365
aa(lp21
F0.6273190888838931
aF1.48291867973558
aF-1.9513414898069734
aF-4.087150032185483
aF2.070462284320225
aF-5.495901064421965
aaa(lp22
(lp23
F0.5671300641433064
aF0.18528124642545207
aF0.5192668179412379
aF1.9599793662952596
aF-1.4085037889139254
aF-1.0700345356179142
aa(lp24
F0.4461675361295794
aF0.7876207187748294
aF-3.3404609448655584
aF3.2699338468613774
aF-0.37284078252785835
aF-5.135944626255003
aaa(lp25
(lp26
F-2.7348630990365588
aF-0.7893965475900885
aF0.2309149466693503
aF0.1799565368246716
aF1.01312188802109
aF4.527762563364159
aa(lp27
F-0.5580543817617474
aF0.1559992180235079
aF-0.011692515925338043
aF-3.640827122051199
aF-1.0532024402087805
aF-0.5087476929947687
aaa(lp28
(lp29
F1.080919432367097
aF-0.2924506166165559
aF0.09614568619590802
aF-1.5944774889926805
aF1.383450430065325
aF5.422034006501433
aa(lp30
F1.152165186448379
aF-1.4937158575036076
aF-0.8024737992862874
aF-3.3549101657807925
aF1.151114863903008
aF-1.0493779135085557
aaa(lp31
(lp32
F-2.7617887839418764
aF0.10783699670626401
aF0.01990226410973861
aF0.5528324039929045
aF-1.2103713812858978
aF0.5826422764063279
aa(lp33
F1.7725642184188328
aF-1.6796521547282672
aF-1.3076958480778456
aF3.696003108788192
aF-0.06204292910237896
aF-2.474155926113602
aaa(lp34
(lp35
F1.4095700810484932
aF-1.5135083965359863
aF-1.5966930533324253
aF-0.2265779686787548
aF-0.19418278785943777
aF3.0654969431102
aa(lp36
F-2.627531384091266
aF1.232189406133203
aF-1.413490988011235
aF-0.40924656499031187
aF1.1063630894287857
aF-5.287468062906256
aaa(lp37
(lp38
F2.4812345805408564
aF0.312383067728466
aF-1.8385071729186553
aF1.4443709705582268
aF1.466588922075573
aF-1.0514654136636574
aa(lp39
F0.6453604563375026
aF0.712660330649983
aF-3.3668274058539573
aF4.658962365510204
aF0.1900505857588688
aF3.2788459520741755
aaa(lp40
(lp41
F-1.0184297352969431
aF-0.9181230317279381
aF0.023333293762916707
aF-4.686012354180749
aF0.5629000346006774
aF-3.7890627332602325
aa(lp42
F1.782352224671866
aF2.146352386393386
aF-2.121509895672224
aF3.6396976902952414
aF0.9987444273426105
aF5.533331330536611
aaa(lp43
(lp44
F-1.6800949568056855
aF-1.5308778126819726
aF-1.2343842710391528
aF-0.45222006919327296
aF1.3862639508858354
aF-5.99150068125971
aa(lp45
F-2.8911538962814807
aF1.1339656619842473
aF0.7650958129906811
aF4.695224097264186
aF-1.3654548331749352
aF-5.9271122745816935
aaa(lp46
(lp47
F1.8824798462122998
aF-1.4352166053590105
aF-1.0234654321199446
aF3.3142080380385526
aF1.8667356399056105
aF-4.23847645045606
aa(lp48
F-1.4612461736976223
aF1.619265076723102
aF-3.352720443252993
aF-1.8171101437862776
aF0.12830957145140598
aF3.400312907414974
aaa(lp49
(lp50
F-2.1353221832868057
aF1.6691925276029638
aF-1.793544237086008
aF-4.2158073828612945
aF-0.3863665167354755
aF-1.842581807970297
aa(lp51
F-2.402336157003244
aF0.3814150237285818
aF-1.7132152985985858
aF-0.3654751950824746
aF2.0362808354041704
aF2.022105591784231
aaa(lp52
(lp53
F0.5913063432716767
aF1.0320315955927057
aF0.5387711033657525
aF-2.320108994222939
aF2.021080067031317
aF-5.5264070638842835
aa(lp54
F0.8165536451543978
aF-0.7172771614719986
aF-0.25924282069343585
aF3.201449032478937
aF1.6560114807445148
aF-0.8661267268192514
aaa(lp55
(lp56
F2.683389220833305
aF-0.52422795481556
aF-1.6620121334039657
aF-1.1135228602591791
aF-0.052645426600715695
aF2.76290441287943
aa(lp57
F0.5157837474972418
aF0.4420221684386729
aF1.1171746086966619
aF-4.229731417985022
aF1.7664080339258001
aF-0.746296966415497
aaa(lp58
(lp59
F-2.912518170343852
aF-1.4463683011328001
aF0.6691422937872908
aF0.8596563666961368
aF-0.7579462571075639
aF4.804697198205338
aa(lp60
F1.5479442922729594
aF-1.1646574611167133
aF-2.048633403527422
aF-3.271359086948715
aF1.3834927622566848
aF-5.8893894006074605
aaa(lp61
(lp62
F0.12538912997446428
aF1.4604416929041784
aF-1.9164093753895355
aF0.35016913219588197
aF0.5993621490921006
aF-4.2335152278907415
aa(lp63
F-0.027090109097670734
aF0.5856975220573877
aF0.8168897094368304
aF2.52852342124606
aF-1.7336962154095144
aF4.863220145402342
aaa(lp64
(lp65
F-2.0155654385886224
aF-1.0117750601145856
aF0.9014078418797928
aF1.940287297452965
aF0.0574043599123204
aF0.2043965055928183
aa(lp66
F-2.6595355384892008
aF1.2840231056074694
aF-2.2608318706918027
aF3.347593764957491
aF-0.7196005373256884
aF-4.906821218214636
aaa(lp67
(lp68
F2.5665775069318486
aF0.6415239676176663
aF-2.882511230385587
aF0.13425837695462217
aF0.7658698925877494
aF-1.9631121887981697
aa(lp69
F-1.2369294741637962
aF-1.362764744270043
aF-2.555043735027816
aF-2.4881350759651224
aF-1.0813671629717425
aF5.077216461830807
aaa(lp70
(lp71
F2.1573220098143877
aF1.2947744397607392
aF-2.962659256865185
aF3.3582762873220435
aF1.4773195223555358
aF3.6144176100446623
aa(lp72
F0.703230229449574
aF-1.2637683165653686
aF-1.3631303079226385
aF3.9595125744597794
aF-0.855799581312316
aF4.902440241484329
aaa(lp73
(lp74
F2.0522597078956593
aF0.6446718522551285
aF-3.353680201658927
aF0.5842088170737769
aF-0.9457392221431546
aF3.6988186930049123
aa(lp75
F-2.1577640511848784
aF-0.04468645785732739
aF-3.1432030392519836
aF-3.3122894076411464
aF1.4727741726664125
aF3.105510218715817
aaa(lp76
(lp77
F0.6435833354247524
aF-1.3323708526841966
aF-3.183245537710034
aF1.8077850756251745
aF1.7693351453719863
aF0.7187964458569018
aa(lp78
F2.2914952084318787
aF-0.6875925183609348
aF-3.0229982180686017
aF0.6164074963049
aF0.549516706671997
aF0.48723476731789717
aaa(lp79
(lp80
F2.4365823114107994
aF-0.9107053243400383
aF-3.322178896522815
aF-0.16768236560615346
aF-0.48875694325655816
aF2.0483863028241194
aa(lp81
F-0.7564209287342694
aF1.7476669056909753
aF-1.9673710958829047
aF-4.6914262722600215
aF1.8070172823673065
aF-1.4866653447728515
aaa(lp82
(lp83
F1.48582470690029
aF-0.0026074346102431534
aF0.5302859078838096
aF-3.5347398209243392
aF1.6284032619528142
aF1.0631976433339947
aa(lp84
F-0.0019365818722305583
aF-1.6005744346808801
aF-1.6100118504874754
aF1.7556680830195086
aF-0.5990438034217365
aF-4.913854551851874
aaa(lp85
(lp86
F2.513194240211804
aF-0.6994478287958881
aF0.12457745357742533
aF1.622615696772339
aF1.778816838854131
aF2.7910342371694474
aa(lp87
F-1.2234321957358703
aF0.4874203318134698
aF-2.999963001564959
aF-0.7484522356218304
aF-1.8109230955194509
aF-6.270095701678275
aaa(lp88
(lp89
F-2.9535194480124973
aF2.031758233738519
aF-1.6401513802892476
aF3.967545559084014
aF1.1752340290409573
aF-5.924854874444472
aa(lp90
F0.2151651090439537
aF-0.2582639910345623
aF0.5411652969541909
aF4.081914627593383
aF1.8811643488943544
aF1.8752596095634262
aaa(lp91
(lp92
F0.1632995978835714
aF-0.45339187925166
aF1.02074004009082
aF-4.011015483707612
aF2.146839635640875
aF-3.169523641294814
aa(lp93
F-2.3595974789442393
aF-0.8098893435635204
aF0.4721024998266996
aF2.945321332289944
aF-0.981694619252542
aF1.5685695160621416
aaa(lp94
(lp95
F-1.7246599817442678
aF1.4711017979155203
aF-0.7826544445376284
aF-2.5346254231144325
aF0.4867719126436376
aF-3.594879018212091
aa(lp96
F0.7778842840350495
aF-1.6206916295363096
aF0.518183930399823
aF-2.0118345981531194
aF-1.2316651868577888
aF-3.018304182982914
aaa(lp97
(lp98
F2.1738309461264165
aF0.9663300541267161
aF0.8736035955548682
aF-2.6425116608517727
aF0.3969889734804113
aF3.750613500962044
aa(lp99
F0.6575986248003702
aF-0.18914300139314966
aF0.7659370105437939
aF3.567158249885864
aF-1.741235519695715
aF1.9650590069466682
aaa(lp100
(lp101
F2.0996563748285832
aF-1.3655809738862268
aF-2.756274806108217
aF0.7611851310671716
aF0.9632767673097704
aF-5.350033398575777
aa(lp102
F-0.9460691864906945
aF0.6175533305130321
aF-1.8201881223083416
aF-1.6019993715452996
aF-1.8501073027897639
aF-4.5078290209472796
aaa(lp103
(lp104
F2.697607251005047
aF0.5550603159560739
aF1.0378478374873974
aF3.7698181970516327
aF1.4613174411877363
aF5.4678070053040395
aa(lp105
F-0.13580617542204454
aF0.3190576922488533
aF-3.402465679490095
aF4.476589021211595
aF0.04854547745935811
aF-4.181386926092838
aaa(lp106
(lp107
F-2.811126085126234
aF1.563063892413949
aF-0.9801241962170253
aF0.11112799150437436
aF-0.30038027320449245
aF-5.712623906863043
aa(lp108
F-0.4454599235372707
aF0.7793141898353579
aF-2.5186418233380223
aF2.9763502023050865
aF0.8638431384781868
aF-2.8240675296260855
aaa(lp109
(lp110
F2.1594239036177005
aF-1.1426777411059241
aF0.21097507859607578
aF3.0005254357627216
aF1.622837574866561
aF0.9525489700162897
aa(lp111
F2.448268162166221
aF-0.9571683888413174
aF-2.582103171250033
aF2.72523371701683
aF-0.5821258388551827
aF2.135318344508959
aaa(lp112
(lp113
F-1.5288996597036573
aF-1.1328363880251424
aF0.40208728747799594
aF-3.179169728215908
aF-0.3374530282945982
aF-4.759472106322935
aa(lp114
F0.17120414289237695
aF1.046825725524008
aF-3.388209895977329
aF2.691168044373539
aF-1.045051314492975
aF2.4825326615475065
aaa(lp115
(lp116
F0.7528007108304919
aF1.0475274663635985
aF-0.6866825084395551
aF4.191374731334328
aF-1.733446278529315
aF2.2854615808639176
aa(lp117
F-2.0248555703812356
aF-0.5021831975967286
aF-3.1891121141429335
aF-0.8342659561655887
aF-1.635874875413378
aF-4.406689110178144
aaa(lp118
(lp119
F-1.2165078185311573
aF-0.20153523082339375
aF-2.8086907746202643
aF-2.0931537984342934
aF0.8436226363529395
aF3.786738523404062
aa(lp120
F-2.0774003807887875
aF-0.5204963303453407
aF-3.272226516715891
aF4.651530699168434
aF0.6553000350487568
aF-1.0999175649417898
aaa(lp121
(lp122
F1.9356136829994344
aF1.0997977620596555
aF0.738761109716148
aF4.199695222820978
aF1.8212939330107263
aF-1.9604389928606567
aa(lp123
F0.013895968718399931
aF-1.5809793357552713
aF0.4413148131992335
aF-1.4639218005767414
aF1.1171477981575286
aF5.517597507292078
aaa(lp124
(lp125
F-1.1034007856699988
aF-1.5999615341756228
aF-1.581286090322836
aF2.1834845933443177
aF0.8603425966099993
aF1.7232758778756123
aa(lp126
F1.2774791851175515
aF-1.690919171473187
aF-0.49014337729940305
aF-3.481525270619964
aF-1.4510539298485834
aF4.420050178662684
aaa(lp127
(lp128
F-1.1144314548433516
aF-0.5520868081408787
aF0.2906326540824491
aF3.8143383355137086
aF-0.146230665911391
aF-2.5834455489430352
aa(lp129
F-1.5686557064667437
aF1.6474947033710818
aF-0.2763838327452879
aF-2.2471029904681794
aF0.7308126870807663
aF-0.0672451091100319
aaa(lp130
(lp131
F-0.8596302756631284
aF-1.5439902006735924
aF1.109327283283926
aF-4.640974567002755
aF2.0738710281059713
aF5.030685721791621
aa(lp132
F-1.5785161381860022
aF-1.4913117342564317
aF-2.834837457434289
aF-3.269005648870833
aF-0.1658818346590918
aF4.573430426921694
aaa(lp133
(lp134
F-1.1994975850048806
aF0.20434194842765785
aF-1.962386529885077
aF1.164528940668517
aF-1.9631082409504141
aF2.426002005717524
aa(lp135
F-1.6316791262862895
aF-1.031951977234793
aF1.0234830555437493
aF1.4856922492909455
aF0.4318171340119048
aF0.017197003521237875
aaa(lp136
(lp137
F1.4457872220355825
aF1.801540054530114
aF-2.28217108939403
aF-4.658058691732023
aF-1.5516575238889063
aF3.314814926326611
aa(lp138
F-2.737932556183768
aF0.28317322304505055
aF0.7841314474548926
aF0.8430055700669641
aF1.8186181452186352
aF-1.6966720543497331
aaa(lp139
(lp140
F-1.8006699941139883
aF-1.1417754884938023
aF-0.9796892637784071
aF2.377539642355468
aF-0.8970086450613237
aF3.8685805387638608
aa(lp141
F-0.4072337606348322
aF0.8579183956203367
aF0.6753284703862454
aF4.14480164153235
aF0.16163641281144203
aF1.267873089655434
aaa(lp142
(lp143
F0.21149285016857045
aF-1.7421959049089535
aF1.0500287099383052
aF-1.4630703249814094
aF0.26344207308686274
aF-2.2807239081736475
aa(lp144
F1.8999222373230453
aF2.010058831278815
aF-1.6437954127588235
aF0.6626258932176468
aF1.3371271118069696
aF-4.092636221829855
aaa(lp145
(lp146
F0.5676255494696396
aF0.4512919540653786
aF-0.6633038218587193
aF0.899032501283803
aF0.6371680999214697
aF-5.922543663985651
aa(lp147
F1.7675101163056994
aF1.3996540731331604
aF-1.2915272998585579
aF0.6195663924574637
aF1.6789875738764426
aF1.3796210427245725
aaa(lp148
(lp149
F1.2727499494994015
aF-0.1470703320079889
aF-2.073842762641825
aF0.9029900372983706
aF-1.954536562989242
aF1.003226142712422
aa(lp150
F-2.703873957212688
aF-0.39106464591559864
aF-2.7157180686189597
aF4.372904141369858
aF-1.1228763316124788
aF-1.1271838615959044
aaa(lp151
(lp152
F-0.6421504921246943
aF0.6922456648478339
aF-3.279965109090204
aF4.029504328306524
aF0.25155156095752007
aF2.178920957457394
aa(lp153
F2.591166948790843
aF0.5503834979292437
aF-3.0974120274819974
aF1.9021336951921866
aF1.3100030492102355
aF4.4676759331190175
aaa(lp154
(lp155
F-0.9236508818444187
aF1.6172565492921702
aF-0.8634311701904882
aF0.48383190076502025
aF0.7954135588286073
aF-2.1314637069307976
aa(lp156
F1.4544841344307913
aF2.078589626819635
aF-1.6996037529000887
aF1.7840790912631945
aF1.4493051199515148
aF-0.5871623735269944
aaa(lp157
(lp158
F-1.4703973683635654
aF0.9453259657104929
aF-3.4908472319850508
aF-2.7213940650862405
aF1.3380424235750463
aF-1.930367610945158
aa(lp159
F-2.7808956903811817
aF-0.4329839090168639
aF-2.802710157482022
aF1.3720649410909633
aF-0.20785138743700493
aF-3.1155077449095834
aaa(lp160
(lp161
F2.132896100799471
aF-0.9292358909484546
aF-2.8572341975815165
aF-3.33321949071907
aF1.4199822236575574
aF-5.626211722347393
aa(lp162
F0.4384500655154504
aF1.2328930851741688
aF-0.7201530379147654
aF-0.574949783195172
aF1.19035434498428
aF-0.8618875491378777
aaa(lp163
(lp164
F-0.5234426127079042
aF-0.3115808899823391
aF-1.3642477314364974
aF1.9359218103027889
aF1.3617949740849444
aF1.573389229498348
aa(lp165
F1.0730621433430918
aF-1.061799423683203
aF-2.2775232260109832
aF0.4468264936445072
aF-1.3828367281293077
aF-3.943672976776006
aaa(lp166
(lp167
F1.3218444392046877
aF-1.1033046693814064
aF0.8773247624782461
aF-0.8781404548737557
aF-1.1601045588799057
aF6.2823168084358825
aa(lp168
F-1.8539866686351132
aF-1.6622939152217888
aF-0.4353299671977835
aF-1.4018108193691892
aF0.3117006628275978
aF5.1919304332151635
aaa(lp169
(lp170
F-0.16548128759743097
aF1.3185615443613674
aF0.2914600794526323
aF2.469938472270364
aF-1.4638167858560396
aF0.9174279702593786
aa(lp171
F-2.531126086888882
aF1.4081941480688758
aF-2.0020389437313373
aF-1.7617019463400343
aF-0.8788472839560715
aF5.731947621927282
aaa(lp172
(lp173
F2.659984783607832
aF-0.10404452293574118
aF-2.897818961645381
aF-1.3668381015336424
aF-0.5381010455013628
aF5.563733706613799
aa(lp174
F1.5217391980655415
aF-0.5751110893312457
aF0.3845070189429536
aF2.6206347893070863
aF-0.6122959153626735
aF1.1148572124865206
aaa(lp175
(lp176
F-1.2380416506286513
aF-0.35749488175252364
aF-2.677962360714335
aF0.9866257407328254
aF-1.1116514665648711
aF-0.27077524626160354
aa(lp177
F1.6459477955892008
aF0.13727256567993207
aF0.9910781637857364
aF0.3549097626387425
aF0.7378081972701476
aF3.747225525297762
aaa(lp178
(lp179
F-1.4385079999548396
aF-1.1709977829736231
aF-1.3511699205305496
aF-2.7800966699092684
aF0.4928518795616097
aF4.316863690910647
aa(lp180
F-2.617134574349403
aF1.3780618164315812
aF-0.35390547563336083
aF-0.1356170689378544
aF-0.7951199252227406
aF-1.6562514964965764
aaa(lp181
(lp182
F-1.1215875867170977
aF-0.39613270988356364
aF-3.2709757394783705
aF4.517038873292247
aF-1.3306819681193123
aF5.719461356476592
aa(lp183
F-1.9745736372330087
aF-0.31885456996711303
aF-2.810612072727067
aF-3.5463155608467836
aF1.1519521644131276
aF-4.235825094181575
aaa(lp184
(lp185
F1.2939378649150082
aF-1.374576060113633
aF-2.4700782219677855
aF0.8121401352605426
aF-0.7135932406109475
aF-1.1063715477134437
aa(lp186
F-1.1448753705532204
aF0.34246357223364
aF-3.1480935098721803
aF-1.175969932483842
aF1.545396175929814
aF-0.7638979599372249
aaa(lp187
(lp188
F-0.1307668556632393
aF2.0728915682715776
aF-2.6592332843495616
aF-4.038043033658867
aF0.6894041964640456
aF5.4957312123299635
aa(lp189
F1.023912884180723
aF0.8939788928139758
aF0.00038508273570281304
aF-1.7229807967274642
aF-1.6970464736315531
aF2.4202592439543897
aaa(lp190
(lp191
F-2.2474408838326774
aF0.15077398858023927
aF-0.01370777610447993
aF4.341629444969058
aF-0.8011010716331659
aF5.952571427150583
aa(lp192
F-0.12953343864419153
aF-0.4931107263499521
aF0.2591513340443834
aF3.0418198194651653
aF1.090847909878856
aF3.1988590521996523
aaa(lp193
(lp194
F-0.7020558741120184
aF-1.1490001234763811
aF0.8066355354823336
aF-1.2262712878472057
aF0.6703096458420954
aF0.005520419955023392
aa(lp195
F0.38860002522952497
aF-0.7105529451740282
aF0.10466202297999105
aF-0.060896441923461
aF-1.542935761531619
aF-5.2461894901097965
aaa(lp196
(lp197
F0.7190137304877853
aF-1.059239393033856
aF-0.2617745209503286
aF-1.0886203173503568
aF-0.6495803138314951
aF-3.6767364553765414
aa(lp198
F1.910779475491204
aF1.761597887273472
aF-1.2505451361400262
aF2.187500214175639
aF-0.884314322123203
aF2.9073643426010216
aaa(lp199
(lp200
F1.416808861013204
aF0.7867306842012765
aF-2.4060629561170632
aF3.590604141866578
aF1.2161715948633876
aF2.0530172379126386
aa(lp201
F1.5082549244490528
aF1.0651159728526123
aF0.6985833113591577
aF1.5783891287771787
aF-1.1777000795508779
aF-1.07160028788876
aaa(lp202
(lp203
F-0.3335598839422871
aF1.6086556774388545
aF-3.264780710653393
aF1.098572107845282
aF1.0766107100414617
aF-4.1165472670764505
aa(lp204
F0.6053456130473922
aF-0.5997549701488161
aF-2.555284586113979
aF-4.156433704843954
aF-0.7831805198383868
aF-0.462571909669947
aaa(lp205
(lp206
F2.071114748854685
aF-1.19029955367933
aF-2.2097587398863414
aF-3.0062651795888073
aF-1.4727824390725628
aF4.879076752190572
aa(lp207
F1.244979946661028
aF1.8004445608306376
aF-2.985494758483668
aF-2.1089078356378144
aF-0.4283499864962199
aF-0.013123366581920592
aaa(lp208
(lp209
F1.084146875539957
aF0.9835569323745683
aF-0.6105196135392514
aF2.179326431697005
aF1.0064636079689997
aF0.1500799698157751
aa(lp210
F-1.0961621014690457
aF-1.5558583531492673
aF-0.5998944027649786
aF-4.544539375917142
aF0.06502474437826233
aF3.4556612354520366
aaa(lp211
(lp212
F2.578990725616777
aF-0.597622608274242
aF0.35513209828670966
aF0.704943689354657
aF-0.3681391883134195
aF-2.4474662374860077
aa(lp213
F-0.46676815250075077
aF0.04831757290238903
aF0.9078061188815227
aF-1.1959189805654904
aF0.1626839356965326
aF3.7880879211164347
aaa(lp214
(lp215
F-1.4843730717837562
aF1.117108317823785
aF0.059711523804272026
aF0.1052259612770019
aF1.1962083171516245
aF1.888495775856037
aa(lp216
F-2.130286309778738
aF0.7887228781470879
aF-0.9399181634032341
aF4.641492690534248
aF-1.601500286638128
aF-0.08496856156049581
aaa(lp217
(lp218
F-2.390075129534362
aF1.0794543226551028
aF0.4611555455760823
aF1.7891898642840607
aF-1.9121667717703903
aF-5.549287802786974
aa(lp219
F0.7107398589963796
aF0.7864146866366606
aF0.5800812421672643
aF3.253285125801489
aF2.1335690514511274
aF-3.6873505458034206
aaa(lp220
(lp221
F-1.270263210435654
aF-1.491345934270668
aF-1.608280713408279
aF2.0263787605730004
aF-1.1950293694946368
aF2.713623461988287
aa(lp222
F2.556371902943258
aF-0.25752368375981805
aF-2.465262651029404
aF1.0130770982151152
aF-0.8515200660399169
aF-5.205066030999491
aaa(lp223
(lp224
F0.4905292524300804
aF1.0784484433731851
aF-1.7262475054775253
aF-0.2516891320168133
aF-1.5649150399827383
aF-2.2138526188940277
aa(lp225
F0.7533813272330279
aF1.4604407677458102
aF-1.751458884911153
aF1.6657014068094433
aF-0.7343470843986872
aF-2.5453047626589766
aaa(lp226
(lp227
F-1.1527621969968729
aF1.4049482089244836
aF-0.4327035754319599
aF0.7957505726413636
aF-0.1908206431886712
aF-2.471773923677889
aa(lp228
F2.5292805918937487
aF1.6950946961814868
aF-3.01328632659619
aF1.2506545285614603
aF2.0080674754294643
aF6.018189225425602
aaa(lp229
(lp230
F-0.09396650862412148
aF1.2754806118478608
aF-2.8548605953844666
aF1.8727722953370156
aF-0.46443845864798505
aF1.9135014376306296
aa(lp231
F1.8899582677055418
aF0.7838985249223391
aF0.5717743735200682
aF1.7035382422013265
aF-0.9718807170763997
aF4.624619644805684
aaa(lp232
(lp233
F1.5188464891275948
aF-1.0283078925679294
aF-1.8548247891888932
aF2.358997007238007
aF-0.9449584569404343
aF0.5162535044736494
aa(lp234
F0.24809673077003946
aF1.978217996352838
aF-2.7831172451547013
aF2.6432619885662456
aF0.07439179069502
aF4.118276486411346
aaa(lp235
(lp236
F-1.3055558792991064
aF-0.979652406709339
aF-2.764700579390243
aF1.0262534992876065
aF-1.0403427235366702
aF-0.7285679429165768
aa(lp237
F-2.771312479965381
aF-0.9313033556000219
aF0.45732679563117973
aF-2.4937143281961833
aF-0.33576583368869106
aF-0.20302116194460496
aaa(lp238
(lp239
F-0.6814854118823095
aF-0.520552956676684
aF0.6238620670163937
aF3.7542836448017614
aF0.24210268722536465
aF5.615069609878128
aa(lp240
F-2.0455815918115183
aF0.535047722532783
aF0.5136157453757275
aF-4.458165562480381
aF0.01183308718026499
aF-1.7242118163318807
aaa(lp241
(lp242
F1.7484102944149273
aF0.6144860797136817
aF-0.089091395098845
aF-0.10983568077351435
aF0.918174035397664
aF-2.1825622304379033
aa(lp243
F1.6815244079930776
aF-1.6654939840908867
aF0.7169318408695706
aF-1.0158292963157765
aF1.9814580533507105
aF5.352267507393978
aaa(lp244
(lp245
F-1.898936082776911
aF1.7189011064820927
aF-3.057588850008101
aF3.2509227911351717
aF1.3703334396855094
aF6.212191314502111
aa(lp246
F0.35019994449968905
aF-0.6552509472549757
aF0.1724631802803951
aF-1.7802691059555595
aF1.836475275803739
aF-1.1389605716059243
aaa(lp247
(lp248
F-2.793475587496694
aF-0.5172870614336524
aF-2.9550442356548157
aF-0.012441474811143216
aF-0.1296390266366405
aF-4.895170372300608
aa(lp249
F1.0616316238524255
aF1.5281363138854398
aF-0.7121473617316565
aF-3.4911299898608767
aF1.0256420744481254
aF5.487453485040382
aaa(lp250
(lp251
F2.280432255199251
aF-0.6899978551355597
aF0.6226015335450596
aF2.393502933055246
aF1.6561698883863598
aF3.838256488791088
aa(lp252
F2.8286181829867725
aF0.8855806265226667
aF-0.9593369408224275
aF4.468376147302434
aF-0.5735310184254736
aF-6.1605423881840125
aaa(lp253
(lp254
F-2.5080437437135634
aF0.7275229640883283
aF0.787742448013558
aF-4.562508478198638
aF0.08873242817962756
aF4.630964327694204
aa(lp255
F-2.428541293596159
aF0.2249653130355016
aF-1.117998285000013
aF1.1585916898058812
aF1.884151283564404
aF5.975947939097446
aaa(lp256
(lp257
F-0.31148181744702663
aF-0.3925807583105132
aF-3.4049443265689447
aF-3.4190327472974396
aF1.6254481320411136
aF1.2478619945356053
aa(lp258
F1.582397746608169
aF-0.9143919928168768
aF1.0875518582685424
aF3.321100916801699
aF1.8724610304532634
aF0.32703462520086024
aaa(lp259
(lp260
F1.6186217310493194
aF-1.4268363166273235
aF-2.7011806995005383
aF-2.4034503316279867
aF1.0435249327794502
aF-1.2307149455048387
aa(lp261
F-0.8215339556952883
aF0.6118358374167645
aF0.9126501716080262
aF-1.2467253183797347
aF-0.8644805533147093
aF-5.448382942823582
aaa(lp262
(lp263
F-0.29989624627279055
aF-0.17575971296480097
aF0.85226233115915
aF3.676161805631656
aF-1.6999335691180388
aF3.410700823350605
aa(lp264
F-1.7552423785956601
aF-0.25850312400334574
aF1.1571030279301877
aF-0.6385174879681568
aF-0.33066237729738734
aF-2.530063939857447
aaa(lp265
(lp266
F0.6980888318833891
aF0.5891046635514305
aF-2.3346933339673246
aF-4.026873999609937
aF1.7713230253206742
aF4.944476653379833
aa(lp267
F2.403082035347633
aF-0.07011862112323941
aF-2.1815144399295354
aF1.1772122541713852
aF-1.833271099124282
aF1.4288025738396133
aaa(lp268
(lp269
F-1.6210621469895992
aF-1.6173406874370826
aF-0.913464644978677
aF2.434184271483887
aF-0.1779998770819593
aF-5.009843081113639
aa(lp270
F0.9084315339064233
aF0.9706456917295685
aF-1.0283339513710326
aF2.9284252428214277
aF-1.199311300815012
aF3.7390197727833394
aaa(lp271
(lp272
F1.2066615227166682
aF-0.7754628203559598
aF0.6547874231539645
aF-3.7161491288787563
aF-1.093351052053959
aF-0.8299581707155568
aa(lp273
F-0.34372961790521694
aF1.7910513868252695
aF-2.155987904329594
aF0.05889181380180997
aF1.8298999709208683
aF1.1744305391169343
aaa(lp274
(lp275
F1.155212169691398
aF1.53024442482899
aF-3.2990401171476247
aF-3.1065026617877507
aF1.5218537354497164
aF-5.631062999442802
aa(lp276
F1.4715258417930932
aF0.8101790956087656
aF0.423445578027156
aF-3.672512040314322
aF-0.0863093180316774
aF1.7917418894198738
aaa(lp277
(lp278
F-0.8918292210838086
aF1.3906816975919112
aF-3.2244361779305697
aF-4.533918040450552
aF0.19331297829175442
aF-3.8925020486062176
aa(lp279
F-0.09187975522307656
aF0.7024404716448616
aF-3.377047984513069
aF-0.6643266590825121
aF-1.1043738199562934
aF-0.463683586462313
aaa(lp280
(lp281
F-0.2655699607117268
aF-1.5144422382538394
aF-1.6564113082948952
aF-1.8061525841898094
aF-0.4546816928601676
aF2.7077320702479843
aa(lp282
F-0.05472990590450433
aF0.3128303044722287
aF0.47059496252278343
aF1.760690741823013
aF1.382765133232759
aF-0.6151801096314955
aaa(lp283
(lp284
F0.16295231933714716
aF1.882946353936334
aF-3.2969824462271786
aF-3.9298980987020435
aF1.5388108472915007
aF3.6921596710843163
aa(lp285
F-2.631680743579871
aF-1.213016816106241
aF0.9472627677335175
aF-3.952239746510418
aF1.8085943627178152
aF5.1871431128761545
aaa(lp286
(lp287
F-1.6085674843286022
aF1.7742740349219779
aF-3.375682058804344
aF1.1571639779651246
aF1.6518276696235703
aF-5.751197044108302
aa(lp288
F-1.955857530601604
aF1.7762361322178228
aF-1.476077730841546
aF-3.1621049495122184
aF0.23964966310254887
aF4.517408124813625
aaa(lp289
(lp290
F-1.8740447043413824
aF2.1737161746812212
aF-2.619056560130592
aF3.998466628583632
aF0.7290419172966214
aF4.25083376346388
aa(lp291
F-2.468228916984084
aF0.1216189685420821
aF0.2575353184550382
aF3.486799017670716
aF-1.5455640031635773
aF-6.147344652920856
aaa(lp292
(lp293
F0.3626639729228849
aF-0.02945927883954491
aF0.15484869913297405
aF2.883751659103277
aF2.0799714693188527
aF-4.454955456389479
aa(lp294
F2.591783464840008
aF0.05455760942983989
aF-2.6401929603135876
aF-0.38548257377634343
aF1.5122422856934898
aF2.549129074760905
aaa(lp295
(lp296
F-2.005725510976196
aF-1.1475069955240706
aF-3.07106204679848
aF3.956827660484235
aF-0.205898596335079
aF-6.0057261323843605
aa(lp297
F-1.2529667339580055
aF0.8591625776688989
aF0.13906956849015772
aF-0.5981786616841935
aF-1.1810265897241676
aF3.837299079416364
aaa(lp298
(lp299
F0.9036153542886596
aF1.3683768417113553
aF-2.3114012700298074
aF2.9957364916142017
aF-1.0434190035106652
aF5.309424425879265
aa(lp300
F0.7389645615296714
aF1.1860823377971927
aF-2.835276440090218
aF1.464707163515703
aF1.3035766114589467
aF-3.9296092381293013
aaa(lp301
(lp302
F-1.3529943003240463
aF-1.2053114597627093
aF-1.2999180227012812
aF3.5274237427554507
aF-1.2611731939718123
aF3.962194402835462
aa(lp303
F2.1093457979547456
aF0.490941929979003
aF-2.1836638913756192
aF3.050487502245171
aF1.5568695855415133
aF2.040996705497217
aaa(lp304
(lp305
F2.6629693676036985
aF0.13014242421304045
aF0.696392940295556
aF-2.898328521545187
aF0.40467643163747935
aF3.7425391725148947
aa(lp306
F1.245718138077485
aF-1.0724788115810353
aF0.21519134776753468
aF3.2589939524071694
aF0.5319558062236895
aF5.390808327464867
aaa(lp307
(lp308
F-0.10776585352650914
aF-0.25480847556532393
aF0.4240312048125259
aF-3.382417189065409
aF-0.20382565646524498
aF3.0688642224598217
aa(lp309
F-2.645651163434399
aF1.2464961292643881
aF-1.4122199504373225
aF3.463485031485833
aF-1.7030306487160265
aF-3.8128020181528863
aaa(lp310
(lp311
F-1.254887971726276
aF-0.9664188312315323
aF-0.016628316096345852
aF-1.5340667146464142
aF-0.052268831365437585
aF5.146103583108112
aa(lp312
F1.5284016502119155
aF0.5634150854922018
aF-3.0612437032622273
aF0.16864295590774248
aF0.8422001772481358
aF5.84868812733317
aaa(lp313
(lp314
F-1.8465041470606454
aF-0.9673481148076029
aF0.21821458257528104
aF-3.816614246289817
aF-1.1613066394427458
aF5.676230069717701
aa(lp315
F-2.4445193915623307
aF-0.040216105775230826
aF-2.0670000996194435
aF-2.0167336671726432
aF1.5801112494956397
aF0.08348701875302567
aaa(lp316
(lp317
F-1.1083253031411513
aF2.0372838426638955
aF-2.9554629369668435
aF-4.438731702752206
aF1.3201862604730517
aF-3.7699228131548304
aa(lp318
F2.212050086205583
aF-1.2638287929596546
aF0.8589479609235506
aF-1.4806511534748807
aF1.3685502047234492
aF-5.737732601961248
aaa(lp319
(lp320
F0.3397969808982766
aF1.5149661204772205
aF-3.192637428870614
aF1.043129967041021
aF-0.8444409583039569
aF5.7005801056017384
aa(lp321
F-1.0984143742797936
aF1.8567131983305756
aF-3.186739172108414
aF-2.7725568861661363
aF0.9958293390499651
aF-2.021219489975554
aaa(lp322
(lp323
F2.4576332701704175
aF-0.6685924143716584
aF0.22767610423679496
aF3.7696306181207326
aF0.8658374936229083
aF0.6318194721973072
aa(lp324
F0.07864986106891747
aF-0.5231712139697466
aF-0.45509155710055627
aF-2.194269609128893
aF-0.7085454256254482
aF-2.6409972889707527
aaa(lp325
(lp326
F0.8937665259378198
aF-0.06979611286114396
aF-2.9140197428518815
aF-1.3687351411198279
aF0.22177522880700673
aF4.608991126892838
aa(lp327
F-1.1510724611808822
aF1.016561958113059
aF-1.554215862105659
aF-4.614255311155129
aF0.12099578110265163
aF-2.8155969528301297
aaa(lp328
(lp329
F0.7463394326052528
aF-0.9669781046454965
aF0.6519552669397899
aF-4.554453733261655
aF0.781836100256259
aF-3.181641207501779
aa(lp330
F1.779523151311278
aF0.41047226359838485
aF0.6516208392802034
aF-2.0431292436716784
aF-0.8560926943074509
aF-3.846389674383098
aaa(lp331
(lp332
F2.964346165397877
aF-1.0233177823561421
aF-1.785711878932719
aF-0.6273066758251682
aF1.9842214932367321
aF-5.01623251893412
aa(lp333
F0.3578332957352237
aF0.44838029413916347
aF-2.1114858987237652
aF-0.8495794953143334
aF-1.3316948266121504
aF-2.203137337220703
aaa(lp334
(lp335
F-2.5341966028214564
aF-0.6636491942707239
aF0.7560498036038674
aF0.20353557027492464
aF1.345485269194743
aF0.8047341674744715
aa(lp336
F1.2049315679512893
aF-1.2938738806700854
aF-2.469635819502933
aF1.4990652723296058
aF1.257507360080674
aF-2.3877148927687575
aaa(lp337
(lp338
F-2.927805757933095
aF1.0574081702686682
aF-3.3661567197829347
aF-1.5562326912905435
aF1.8621703056057308
aF-4.991266009928949
aa(lp339
F-0.9987674787478042
aF-0.4836135580144285
aF0.7752416941136677
aF2.731972660197391
aF-1.0346028796994562
aF-2.7143178280484173
aaa(lp340
(lp341
F0.4851412488329916
aF1.0490354962225998
aF0.7230008112024469
aF-2.771853977482598
aF-1.6051505301443014
aF4.88455798639004
aa(lp342
F-0.4927549031672571
aF-0.9952207333634603
aF-2.412797188762709
aF-1.3598895494695178
aF-1.8038297015787657
aF3.2427433698014854
aaa(lp343
(lp344
F-1.425762069020332
aF-1.3137127679833356
aF-3.3305998389817044
aF-0.3883942852417688
aF1.6895066506841094
aF0.30145612822130996
aa(lp345
F-2.6966188658781705
aF0.09754371436455544
aF-2.3970902988340175
aF0.10590885232560598
aF-0.2671293543780515
aF5.396219917645081
aaa(lp346
(lp347
F1.9566176704924279
aF-1.2532023619446675
aF0.6225838980505922
aF-4.3429620602668235
aF1.485620986264104
aF-0.483723562970102
aa(lp348
F-2.3820459672697365
aF-0.10314237667425918
aF-2.337714960992999
aF2.111875970444281
aF-0.8652689365976152
aF-2.2932600196555004
aaa(lp349
(lp350
F1.6772880979089
aF-1.5504395135035027
aF1.1175407842236535
aF-3.2587427662888135
aF1.1561290677245704
aF-0.498267595408314
aa(lp351
F2.17730690195094
aF-1.205220562166691
aF-2.577255438393983
aF3.1005422133381817
aF-1.228957345307895
aF-1.6693973115252811
aaa(lp352
(lp353
F-0.5240783517211889
aF-0.46323136485253347
aF-2.45031339311175
aF-4.004852900303493
aF-0.4116994252206836
aF-3.3939252742801234
aa(lp354
F0.25407338644320054
aF-0.18772941298433343
aF-3.0029080293597383
aF2.4914207916521587
aF1.6435317860385448
aF-4.871400879348998
aaa(lp355
(lp356
F-1.7227165743050739
aF-0.002062203352981129
aF0.8987026188283544
aF-1.9724524377811226
aF0.08695288314372185
aF3.3464705554549896
aa(lp357
F-0.8561730758522526
aF1.0841181137427234
aF-1.1852290943709178
aF3.724917161522473
aF0.517903326987609
aF2.714541402157468
aaa(lp358
(lp359
F2.9222600212155005
aF-0.9448097642676117
aF-1.7862840225126089
aF-2.237648347118123
aF1.7529493819327984
aF1.0967444662970793
aa(lp360
F1.489108907740937
aF-0.960877714547507
aF0.29711281913263266
aF1.959695933430499
aF-0.9391889496905215
aF-5.649692333184646
aaa(lp361
(lp362
F-0.22913918659335586
aF1.65359322586038
aF-1.993150722872966
aF-2.6628942482407916
aF-1.348689567054623
aF1.9826205888390893
aa(lp363
F-2.0312873849739894
aF0.6682898335618335
aF0.38059791234542484
aF3.1069324224230535
aF1.1743690646960498
aF-2.1339821348565353
aaa(lp364
(lp365
F-1.2617736453467854
aF-1.3010518547255754
aF-0.8429939033462333
aF0.04162713935660012
aF-0.5335974342560863
aF-3.3606386653083407
aa(lp366
F2.117568657588119
aF2.10777869891282
aF-2.0524480650577974
aF-0.8807953869667813
aF-1.8895818690513795
aF-2.555770450156707
aaa(lp367
(lp368
F-2.6520881356036035
aF0.6768197449550928
aF-0.4799001465094612
aF-0.9916682949930129
aF2.159814784279222
aF0.2645918154740645
aa(lp369
F-2.415961671237914
aF-0.6969460707882518
aF1.0591901769710046
aF-1.2281599183381218
aF1.1562666870067977
aF-3.0909696465506356
aaa(lp370
(lp371
F1.0270326416462363
aF1.453604019151697
aF-2.9817321458799606
aF2.3237727367297554
aF0.8324041584926403
aF-1.0992416561886822
aa(lp372
F-2.263242624585441
aF-1.5510819130169171
aF-2.2418957278576883
aF2.992015061947365
aF-1.2100960513293235
aF2.769944063668347
aaa(lp373
(lp374
F-0.4495728187234409
aF0.0671138939433753
aF-3.3005071042483167
aF0.9220013720404312
aF-0.3977750489971683
aF3.819809851824405
aa(lp375
F0.5766256084509642
aF1.7693563208309149
aF-1.02604376438966
aF3.7397508674041173
aF1.7955112108969953
aF-6.06502987552671
aaa(lp376
(lp377
F-1.7852470682604318
aF0.6278156714771947
aF-2.975553291917282
aF-0.1632949970893094
aF0.7611089348523445
aF-4.184544278605028
aa(lp378
F2.055831559091209
aF-1.0728051643504632
aF0.0742250118537977
aF3.761887361513743
aF-0.7898481433216173
aF4.983688780093057
aaa(lp379
(lp380
F-0.3740939987375347
aF1.4479514063099637
aF-3.344770778891341
aF1.4180873438360573
aF-1.343378952636571
aF2.5430992537702
aa(lp381
F1.266616329123495
aF0.34776606316734693
aF0.1349463847563519
aF0.7137330099414418
aF0.8616240485381335
aF1.7713951238768546
aaa(lp382
(lp383
F0.14446703895242763
aF1.4506792006062117
aF-0.6669607238357669
aF1.8471063994753587
aF-1.6935640522206814
aF-1.0648750971444754
aa(lp384
F-1.7004441786016562
aF-1.364873541157587
aF-2.4229431835189024
aF-2.5331829292714843
aF1.402709885316253
aF1.315231733792805
aaa(lp385
(lp386
F1.0135165974456113
aF1.1339933094505645
aF-1.8010293188207098
aF3.916112863367868
aF1.0401578557662354
aF1.1639109648909711
aa(lp387
F-2.7634665196425674
aF1.5072960898823364
aF-0.6343897311269369
aF3.570766173345101
aF-0.6300962839678068
aF-2.9078258950573335
aaa(lp388
(lp389
F2.7568118326874047
aF0.9034358474741517
aF0.007631465813310978
aF3.2696646679814627
aF-1.060049292817674
aF0.3949528329464158
aa(lp390
F-1.6954235914500655
aF1.9982258993302797
aF-2.218287859203058
aF-0.9732165073990369
aF-0.42536688797041355
aF-1.8136271623732432
aaa(lp391
(lp392
F2.7962667718545453
aF-0.07010576783554012
aF0.7932750921416329
aF-4.201511256257097
aF2.148938597735752
aF-4.079507305019908
aa(lp393
F-1.8319138762676017
aF1.0737111129736783
aF-0.6954059374344026
aF3.515640270643294
aF-1.4608566852152958
aF2.9925103675356235
aaa(lp394
(lp395
F-0.6356685306753542
aF1.7752949040438253
aF-1.5067649852484424
aF-2.0211518712442125
aF1.8245977304275511
aF-1.5312063462302037
aa(lp396
F0.29905975730118506
aF0.6324033621330085
aF-3.208331449400212
aF3.11482488070536
aF1.4767184775964037
aF2.286966157713466
aaa(lp397
(lp398
F-1.2915788240026362
aF-0.5667013362781144
aF0.5999555076469929
aF2.516364568160709
aF-0.20786799381042176
aF0.15208326927272164
aa(lp399
F0.6144311808370921
aF0.9061006265815981
aF-1.5936167980020521
aF0.9616379834497568
aF-0.2966525840575327
aF3.5616400737324403
aaa(lp400
(lp401
F-1.2420771197762983
aF0.0855081318031996
aF-3.2901649684157035
aF2.5823513487417635
aF1.8006468751127063
aF3.7938714201645007
aa(lp402
F0.6636306653370516
aF-0.11363576739329595
aF-0.07517517552415942
aF4.4757733193910685
aF1.1723081178602728
aF-0.7503041937922781
aaa(lp403
(lp404
F-2.5270658216401083
aF1.9618085388636297
aF-2.417143212334353
aF2.849196259497101
aF0.42250907822848616
aF-5.759659129906032
aa(lp405
F2.539355335055031
aF-0.7569826708281489
aF-1.4574498083502334
aF-3.2348751413963095
aF-0.1492663904698852
aF3.990211562179515
aaa(lp406
(lp407
F-2.893472049925206
aF1.2546602014261197
aF-0.4386060408655519
aF-0.3630110820785415
aF0.3161830276907369
aF3.952506125804079
aa(lp408
F-0.3695316267067086
aF-1.5466190066913872
aF0.8100007426074733
aF-2.558476457877877
aF0.33686609016786706
aF0.21014079424272936
aaa(lp409
(lp410
F2.131075823001814
aF0.8215653168263781
aF0.8167783233356807
aF0.5345944460920729
aF1.594446741350695
aF-0.14712863350348115
aa(lp411
F-0.5121448274465998
aF1.330688653393925
aF-0.777548568273895
aF-3.560279121822135
aF1.6504504643936202
aF-2.482564888338995
aaa(lp412
(lp413
F-0.6036247224915785
aF-1.0093651010852822
aF-2.2658162986722954
aF-3.439484658885293
aF-1.3239425754905394
aF-2.2981448679264482
aa(lp414
F0.6110941749666443
aF1.1682496779359322
aF-2.4752240073342056
aF1.011111669684662
aF0.5358369317106715
aF4.743656057485075
aaa(lp415
(lp416
F1.6683026649211494
aF1.2340888870698095
aF-0.38289904052798507
aF1.421145859351114
aF-1.5934269268778587
aF2.8825553778128095
aa(lp417
F-0.9729149814973257
aF-0.19943087705463247
aF-2.7590182548563877
aF1.365794730553417
aF-1.9109193144787757
aF5.385156931539018
aaa(lp418
(lp419
F-1.786265600337018
aF-0.3175939472385392
aF0.5348165503316396
aF1.2559581401860074
aF1.985812113452969
aF4.963226099150542
aa(lp420
F1.4234029019393684
aF1.2670613957460963
aF0.07950027625549527
aF-2.9277612524551193
aF2.0283253420028027
aF1.4046269764032946
aaa(lp421
(lp422
F-0.3195704572003808
aF-0.48579849934820185
aF1.089582204903055
aF3.420854749233218
aF1.4911268217287055
aF-2.275481599495282
aa(lp423
F1.6702469588462105
aF0.5005281608413847
aF0.8028570785186537
aF-0.6442462787959897
aF-0.4749124593341758
aF5.090789368283809
aaa(lp424
(lp425
F2.605965868255043
aF0.6687418014909738
aF0.6967849355073441
aF2.7937364271089242
aF1.5388346122304246
aF1.2419742646547292
aa(lp426
F0.9770401080641218
aF0.8451532501463488
aF-0.5404605238341746
aF4.444262333001598
aF-1.5392100327873195
aF0.06020673163357859
aaa(lp427
(lp428
F1.0470861048067328
aF-0.13952393310504174
aF-3.071029608175185
aF0.8862747682294305
aF0.3983825818149267
aF-0.40031669590610885
aa(lp429
F1.964346501115641
aF1.9523453839991833
aF-1.9947874113225086
aF2.5372507996477864
aF1.9474239598057466
aF-4.68674483892089
aaa(lp430
(lp431
F2.1938168386315477
aF-0.007502200787996127
aF-2.8807749827011744
aF0.24249919165256717
aF-0.9190025746511177
aF5.510257508518895
aa(lp432
F0.45798443766761476
aF0.013439908181365645
aF-1.7968923854600936
aF-2.1636178919477436
aF1.8218170635100055
aF2.935690218279368
aaa(lp433
(lp434
F-2.5628114856290973
aF1.956056180448185
aF-2.4008125612893996
aF3.087425091125895
aF-0.25948540739027104
aF3.2829383595206414
aa(lp435
F0.3241326034954364
aF-1.627177521885333
aF-0.8085530579617841
aF3.0859444771000204
aF0.751437148404797
aF5.65312568146054
aaa(lp436
(lp437
F-0.3667524679324998
aF0.6058203486358149
aF-2.7041771078895023
aF-0.5619379792840329
aF-1.2981957981344587
aF3.764977937691852
aa(lp438
F-2.4714243768621644
aF-1.175931876904564
aF-0.6686915700118465
aF-3.7774398452812354
aF-1.2302936313389279
aF-6.197238104024019
aaa(lp439
(lp440
F0.2754297482609016
aF2.0340665225937524
aF-3.348150183678871
aF-3.073254367635988
aF0.4761079142186344
aF-5.053885018853255
aa(lp441
F-2.523469828114463
aF1.4753662932899565
aF-0.7884230804032288
aF3.6585323377728383
aF0.7265093853647153
aF-4.171066286242189
aaa(lp442
(lp443
F-0.8501036234225379
aF0.5036913110062922
aF-3.205688134789955
aF2.6196624865388642
aF-1.4411693692899221
aF5.45727566850947
aa(lp444
F2.941258407887728
aF1.1810950628128944
aF-3.389000923632713
aF4.39937290418205
aF0.9373709619674502
aF5.6128169518110225
aaa(lp445
(lp446
F2.736860431318234
aF-0.014137440158277226
aF-2.5529991848264135
aF-2.5256914586531223
aF1.7526103584301822
aF-1.5924171208025184
aa(lp447
F-2.583161723385104
aF-1.1684475562687804
aF-0.07560241176869198
aF-2.1082420914855446
aF1.1163960667397483
aF-3.449653970132569
aaa(lp448
(lp449
F-2.012523581694264
aF1.0601949520155776
aF-0.7496020637150247
aF-2.2014163313539528
aF-0.15664791198020955
aF-6.021054012219969
aa(lp450
F-1.4894469985995984
aF-1.3060410304299135
aF-0.6578695476785179
aF1.7598127199768268
aF-0.8263679290523296
aF-0.3216822254292131
aaa(lp451
(lp452
F-0.5475729856658837
aF-0.4861108272039727
aF-3.1679153854954496
aF-2.030725640919731
aF1.2489087006799244
aF0.32329475136323627
aa(lp453
F-2.120142790799073
aF-0.1744242317127913
aF-1.9527486815055901
aF1.8963707984374594
aF1.420992019532477
aF-4.7943965766154
aaa(lp454
(lp455
F2.6824477589172786
aF-0.18716464886519124
aF-2.7531138191118325
aF3.511549515167964
aF1.5620454809329707
aF-2.434841543106711
aa(lp456
F-1.4648931772558542
aF1.1045130883582428
aF-1.0119661255992454
aF0.8315691157916154
aF-0.1568691250022809
aF5.037202029400659
aaa(lp457
(lp458
F2.6658855723077735
aF-1.070245033445168
aF0.0054431493298592315
aF-1.4071509210859232
aF0.7463305601124155
aF0.08960254716213356
aa(lp459
F0.3826503597329336
aF2.15317716213243
aF-2.936336027443498
aF-1.961201525214955
aF0.8800678950426208
aF-4.39081985545752
aaa(lp460
(lp461
F2.444969073698671
aF-0.25922656605602756
aF-3.411852365182098
aF-2.8889009739697893
aF-0.18723209089122417
aF4.911330094073366
aa(lp462
F0.5941658338677196
aF-1.512719015509014
aF-1.445379388593866
aF-2.272639337452122
aF0.8480350398835843
aF1.0026201061862876
aaa(lp463
(lp464
F-1.8859456744273562
aF1.1964454827196138
aF-1.4129841502596925
aF-2.9367762766958148
aF0.8253827881008853
aF3.5560232051971647
aa(lp465
F-2.310166669513682
aF0.10479542412816878
aF-3.1542816957920836
aF1.686743498969049
aF-0.4608937466462084
aF-2.4399701053895178
aaa(lp466
(lp467
F1.547631159241178
aF-0.09315247135637472
aF0.5764528030513651
aF3.0556912431002416
aF-0.7876203270025852
aF2.1816383163754525
aa(lp468
F-1.6021474985055584
aF0.9504930061939421
aF-3.221403349473606
aF-2.9616392735704364
aF1.3485309729839865
aF0.9815636840973045
aaa(lp469
(lp470
F2.6288300174004706
aF1.6042613329107742
aF-3.1025150089492404
aF1.0929875609058897
aF-1.6826940275542637
aF0.6186735817016249
aa(lp471
F-0.4453466375916051
aF-0.508468851191658
aF0.8972066945354151
aF-1.7727259134946856
aF-0.862636387979181
aF5.781991360116446
aaa(lp472
(lp473
F-2.7193740566378057
aF0.8930304668707811
aF1.0586541888226733
aF-2.8536654685047393
aF1.7441564494004957
aF-3.587716870128732
aa(lp474
F-1.7323955150837929
aF0.7435878608614241
aF-0.3775705217024443
aF3.2479058637512175
aF-0.9240706545638018
aF1.453690039260823
aaa(lp475
(lp476
F0.9505223006252694
aF-0.5389707287389627
aF-0.3493756727595674
aF2.674661110153595
aF-0.6903576981324218
aF1.259472666576496
aa(lp477
F2.918474126889523
aF0.35863768906006355
aF-1.8421469930628265
aF1.0051835204588144
aF-1.5959973801702276
aF0.7300083280042333
aaa(lp478
(lp479
F0.032621471719123996
aF0.4050232174757995
aF-2.741804250312433
aF-4.447464390581097
aF1.5795444352155261
aF-2.9107503237171626
aa(lp480
F0.5182378055300716
aF-0.569496036661435
aF0.42744339667580666
aF3.348764655380185
aF1.315174220343314
aF-4.901726138325654
aaa(lp481
(lp482
F-2.7173604186429556
aF-1.6649439274677558
aF1.1608632818185405
aF4.0877344161184155
aF-1.8968934340321095
aF-5.2005760409292074
aa(lp483
F-1.6682401180860364
aF1.6171215178201077
aF-0.7487113944052535
aF4.324858309133852
aF0.841378404347922
aF3.2731527479618814
aaa(lp484
(lp485
F1.3885646493066797
aF-0.36086637097928476
aF-0.5811552911574758
aF-3.90493954947498
aF2.113302324136402
aF2.1687799452472083
aa(lp486
F1.4086088658361606
aF-0.704385065406715
aF-2.030246705702645
aF-2.3222807175478177
aF-0.12534068824544287
aF-3.0786335031092134
aaa(lp487
(lp488
F-0.4341656179574436
aF0.8058271429913444
aF0.5439998267538981
aF4.266374969270746
aF-1.00442951723706
aF0.8200392818942994
aa(lp489
F-2.721487622955696
aF-0.8217010407953933
aF-1.9579486558920083
aF3.3040125123554684
aF0.4745612332000313
aF-3.987593973749117
aaa(lp490
(lp491
F-2.770459832057771
aF0.6816391689219072
aF1.1050834398438778
aF2.150545107798794
aF1.2222065421342316
aF-0.5527321119781483
aa(lp492
F1.4115241044261722
aF2.1015208066962296
aF-1.9032763739616307
aF-3.2329479427973142
aF-1.3965787812355925
aF-0.7646841565087437
aaa(lp493
(lp494
F-1.9654281129789262
aF0.7101930900013849
aF-0.5151899174342152
aF3.8188535860874318
aF0.7544505054857034
aF3.5996069034359257
aa(lp495
F-1.4592435150838425
aF1.899437583339127
aF-1.0895847855678409
aF2.731585450474359
aF-1.2518709049619703
aF1.4882974642580198
aaa(lp496
(lp497
F2.5571150093888355
aF0.7171200722867659
aF-2.432432516301434
aF3.008703636834926
aF1.714760924967993
aF-2.312767572751857
aa(lp498
F1.5045262105702304
aF-0.49986558187322117
aF0.7910440111787618
aF-4.453127947298182
aF0.8890914558038556
aF-4.747899718127662
aaa(lp499
(lp500
F2.76855487300682
aF-0.6764508423981312
aF0.23464537249603712
aF-0.031100468003070425
aF-0.7659911307868739
aF-4.129386941487812
aa(lp501
F-0.7634228169782191
aF0.6522231881190979
aF-2.6944438013816465
aF-1.0783221807226169
aF-0.6878758117788
aF2.4726010485697385
aaa(lp502
(lp503
F1.4729617089926506
aF-1.0627504824686929
aF-1.792410960192239
aF3.139262970753199
aF-1.1191551674239697
aF5.045974685715158
aa(lp504
F-0.07177672418066594
aF-1.4237648772965195
aF-2.806676628245886
aF2.838284201200989
aF-1.7179860527027822
aF5.2589370620116425
aaa(lp505
(lp506
F-2.233791639534602
aF1.7402655296900273
aF-3.4306069746152157
aF0.22434105679650163
aF-0.3017717983625132
aF4.567750975944967
aa(lp507
F2.2987618543336334
aF-1.6922763563913288
aF0.4703402236345524
aF4.021315251850494
aF-1.4367810159077272
aF-0.3659617394768837
aaa(lp508
(lp509
F-1.0918164811584012
aF1.101713573896658
aF-0.27852131320738893
aF-4.450988450207238
aF1.9807832812442712
aF4.782544563130428
aa(lp510
F1.7764901315713515
aF-1.5179547316398017
aF1.1591323776757112
aF4.386381484846622
aF-0.5970524461524906
aF-1.4409759663591988
aaa(lp511
(lp512
F0.8323898593601138
aF-0.7467104030485563
aF-0.9951246239829272
aF-4.228096323622677
aF-1.1827177156680073
aF-2.3936251764572365
aa(lp513
F1.9413645389494563
aF0.7937502755210262
aF-1.2133732892387634
aF1.4106147443351018
aF-0.7181740221788424
aF5.028295092344984
aaa(lp514
(lp515
F2.8321091896566295
aF0.3051857857480962
aF-0.24529592944697365
aF-1.5474845510575626
aF0.698264872924041
aF-1.256271890169237
aa(lp516
F-2.2780940552871116
aF-0.7165446665159116
aF-0.334344568445033
aF-1.0295124386224543
aF1.649072949357003
aF3.3958572438243637
aaa(lp517
(lp518
F1.4396138120475208
aF-0.9784719895358462
aF-1.4819706695347779
aF2.703658121280168
aF1.5582446264772392
aF3.1577996704413325
aa(lp519
F1.3218214675410889
aF0.9413180041529454
aF0.8928320079538108
aF3.5711708865542064
aF0.7870964096509643
aF-0.40033759543270175
aaa(lp520
(lp521
F0.43101773835163026
aF0.265818171408712
aF0.5927659172485904
aF0.003446283520717408
aF-0.9127353780761038
aF-4.072305828293095
aa(lp522
F2.884257747424359
aF-1.2039613052880092
aF-2.289817369278266
aF-0.3376591958087989
aF-1.273720134222924
aF-4.406959191537584
aaa(lp523
(lp524
F-1.448627127602301
aF-0.8354267600818982
aF-1.618994587105913
aF-4.296315882492168
aF1.1798038382197138
aF3.093975717056858
aa(lp525
F-1.7888263998700429
aF-0.8664852006141932
aF-1.815887064933562
aF-0.3706686863621824
aF-1.611952032821769
aF3.7111193028058205
aaa(lp526
(lp527
F1.0399679884595128
aF0.8752368596408511
aF-3.3090158660132105
aF-3.1375372160859296
aF1.5595072107266548
aF3.367013905462163
aa(lp528
F2.066123438077853
aF-1.464416500450266
aF-1.9676201129474347
aF1.5171157489031142
aF-1.8132601621249858
aF-1.0857755588427738
aaa(lp529
(lp530
F-2.174342827777849
aF-1.339051161687728
aF-3.122489432437376
aF4.355599567765953
aF1.3626412312550582
aF2.4224193322901657
aa(lp531
F-2.3529215224974953
aF0.5816758168074241
aF0.3500086265942599
aF-1.6446897042277069
aF2.1238480889937437
aF5.7463129067196155
aaa(lp532
(lp533
F-1.4030264948620628
aF-1.5721470666784692
aF0.5069888421015025
aF1.9705798736497435
aF-1.1366905350144552
aF-3.8331689681510004
aa(lp534
F1.9448024511138438
aF-1.4390940237787815
aF-1.7135618315069665
aF-4.286887064913372
aF-0.6867931346740557
aF4.99736644398287
aaa(lp535
(lp536
F1.5982311519304226
aF-0.4418871405689504
aF0.8988213232098139
aF4.6959711615975195
aF-1.872095390615302
aF2.799490084506501
aa(lp537
F1.8099005725502146
aF1.9608761790704086
aF-3.318007419697644
aF-2.683162057007393
aF0.0007443830621443048
aF-5.77357144276758
aaa(lp538
(lp539
F2.0979704069574265
aF2.194191251918644
aF-2.8513605009551157
aF-3.725381331784099
aF0.271806637167904
aF5.777662224617651
aa(lp540
F-1.5211237158113942
aF0.22000106333158298
aF1.0822886969419288
aF2.6434706652745685
aF-0.6853507932912712
aF-5.738536163013698
aaa(lp541
(lp542
F-0.9813521262702611
aF-1.4154824519509295
aF1.0024037847584784
aF-0.1198632199762919
aF1.401915283594061
aF-2.721455861858116
aa(lp543
F-0.102030770942382
aF-1.2198084518403443
aF-2.083570960278512
aF0.6291612550708106
aF-0.03797775449120566
aF-4.4304081446437165
aaa(lp544
(lp545
F-0.5061181065876434
aF0.7481140993411168
aF-2.3079695379009015
aF3.8922209036914612
aF-1.4598190342705861
aF2.4568489955428623
aa(lp546
F0.4966325539151071
aF-0.567467280873355
aF0.637330667489683
aF-0.7988786554606402
aF1.1593415529346665
aF0.4150452419423418
aaa(lp547
(lp548
F-1.9083673856794985
aF-1.3861088740049727
aF0.6484810336578399
aF-4.111655299224802
aF-0.4631074200305423
aF-1.0772621716825066
aa(lp549
F-0.9943635306741547
aF1.6543854650892147
aF-2.5530629244838092
aF2.6575371065959406
aF-0.5345511672090233
aF-5.7266561503321425
aaa(lp550
(lp551
F2.5660208503649877
aF-0.18756191162298075
aF0.9373407029306509
aF-0.5215154573148899
aF1.5452846865505392
aF5.019407594057392
aa(lp552
F-0.018901392320197274
aF-0.00688087303648377
aF0.01788000405514234
aF3.834212999024409
aF-1.2357676756106453
aF1.7619257645123918
aaa(lp553
(lp554
F1.9498548467825008
aF0.2522805758714417
aF0.9442765770284445
aF-0.060525041102854615
aF-0.6648061855290048
aF-5.290120429451209
aa(lp555
F0.29359907698593
aF-1.299367564089332
aF-1.8660294554244587
aF-3.7043281547652738
aF-0.15253573278231203
aF-6.058985350322013
aaa(lp556
(lp557
F1.3715728562249345
aF0.5188892015242863
aF1.1701456291349808
aF-0.3427834394012832
aF-1.4123093458968672
aF-0.11185608785037005
aa(lp558
F-2.0421738447467974
aF0.2313795323895811
aF-3.43512534854887
aF-3.0272105782258665
aF0.4243968247830976
aF-0.9312000020571309
aaa(lp559
(lp560
F-1.7195916493166266
aF0.5931954347909887
aF-0.19659991072170913
aF1.947882895192862
aF0.6417023527631853
aF1.6655890021722533
aa(lp561
F-2.838775698110282
aF1.852478053768273
aF-1.2717861853835588
aF-3.6537547998085924
aF-0.8687004604081208
aF-2.028733469649265
aaa(lp562
(lp563
F0.06627487714032743
aF1.0162922227280222
aF-1.1070414423734398
aF-0.622046792991334
aF-0.5742858306159677
aF5.922965620020697
aa(lp564
F2.8509534330045985
aF0.2978683849525101
aF0.5518177746531294
aF-3.1475801097213596
aF-1.7895378785265426
aF1.4818916479227697
aaa(lp565
(lp566
F0.3886905797582392
aF0.423534515001899
aF-2.85846295501322
aF1.9982266703699336
aF1.673364917839148
aF-5.050523377028334
aa(lp567
F-1.8904103640185153
aF0.9213559938814169
aF0.8309605353229093
aF1.412167148835108
aF-0.29140153079229614
aF3.5104964552905953
aaa(lp568
(lp569
F2.368239016740502
aF-1.64136151357813
aF-0.5189336092180938
aF3.4174756141910034
aF-0.2679417582013164
aF-3.4744295568509695
aa(lp570
F-0.15274630753986385
aF-1.5182010640130144
aF-2.8422047671031607
aF2.948654734225573
aF-1.2165370923703493
aF3.146304401133855
aaa(lp571
(lp572
F2.4758160687324957
aF0.03648560773859488
aF-2.677206778336814
aF-4.627819134554415
aF-0.5936754043583721
aF-3.1106595294444555
aa(lp573
F-2.2142428639188605
aF-1.124263145472153
aF-3.2797848880295164
aF-2.616640970750543
aF-1.648492004226772
aF-5.004208229628872
aaa(lp574
(lp575
F-2.4361672946778405
aF1.738595215070275
aF-1.7767195856258309
aF1.5857539370286933
aF0.327725744467557
aF-5.9562292192254045
aa(lp576
F-1.0047221041994885
aF1.1069428241598196
aF-1.8592097230127087
aF0.7307022265608829
aF1.4211803581532299
aF6.08692825947037
aaa(lp577
(lp578
F1.0193018509014307
aF-0.7071681208490495
aF-0.6120423284822398
aF0.4824469679688317
aF1.160123933112441
aF1.5460778147609684
aa(lp579
F1.9072598518620825
aF1.6827960680068914
aF-2.3826554547709895
aF0.672115253022822
aF-1.439245213522406
aF-1.4367622502042083
aaa(lp580
(lp581
F-2.8858802397744987
aF1.7873570853467022
aF-0.5157816027264417
aF-0.7835371893060881
aF0.026757578552463634
aF-5.018346297208365
aa(lp582
F-1.2770599560715183
aF0.04990887794701293
aF-3.3249407153010573
aF1.61026547217479
aF1.567177013367067
aF-0.44177043579208153
aaa(lp583
(lp584
F-2.032631102129148
aF1.1227381943019776
aF-0.6663306399708451
aF-0.4171744339927388
aF-0.2338171137646019
aF2.8377618673353373
aa(lp585
F1.5388894482632511
aF0.6660089307657087
aF-2.8920174422883416
aF-1.499287061728909
aF0.5640135437060358
aF-6.0164660129194845
aaa(lp586
(lp587
F0.99027861092965
aF0.755973378388703
aF-0.5285103571453735
aF-2.9849043723021307
aF-1.3569976969467064
aF5.2237286349495955
aa(lp588
F0.40513270846478733
aF0.9991205835206012
aF-2.5744934863675226
aF-2.704966859920768
aF1.0264523828807053
aF0.4754525170006607
aaa(lp589
(lp590
F0.8390264669005525
aF0.8036411507937355
aF-0.05105392177268042
aF0.8430974573745615
aF0.05351513183894818
aF3.742384414792169
aa(lp591
F-0.48136203247864895
aF-1.5354004353804833
aF-1.587030509183943
aF-3.92738534573932
aF-0.9746714717807163
aF1.5056508510140842
aaa(lp592
(lp593
F0.9561177728695767
aF-0.6584402485900775
aF0.7941472337201287
aF-2.28339085565568
aF-1.722231004839031
aF2.698833278832164
aa(lp594
F-1.521250382312541
aF1.1349964784623472
aF-3.363873902739117
aF-2.010901274641304
aF-1.1260518653923202
aF-5.11796211044624
aaa(lp595
(lp596
F2.797361713620248
aF0.25295527319462763
aF0.28437824998159744
aF2.2024783361532245
aF-0.5636621864561111
aF-5.2988022910729455
aa(lp597
F-0.44454597971004794
aF-1.1862068684882745
aF-3.4599087917486293
aF-1.9250846578154692
aF-0.9117212684233731
aF1.6803762805561435
aaa(lp598
(lp599
F0.520914006551322
aF-0.5655210147304142
aF-0.5081020562044785
aF-3.643421853057897
aF1.913678222425422
aF5.275147424276759
aa(lp600
F0.2841578469261674
aF-0.6846895335447281
aF0.3708634283267629
aF-4.213438566734232
aF1.9430174615012232
aF-2.408599535511029
aaa.